
Forno_ATmega328p.elf:     file format elf32-avr

Sections:
Idx Name          Size      VMA       LMA       File off  Algn
  0 .data         0000006e  00800100  00000d72  00000e06  2**0
                  CONTENTS, ALLOC, LOAD, DATA
  1 .text         00000d72  00000000  00000000  00000094  2**1
                  CONTENTS, ALLOC, LOAD, READONLY, CODE
  2 .bss          00000059  0080016e  0080016e  00000e74  2**0
                  ALLOC
  3 .comment      00000030  00000000  00000000  00000e74  2**0
                  CONTENTS, READONLY
  4 .note.gnu.avr.deviceinfo 00000040  00000000  00000000  00000ea4  2**2
                  CONTENTS, READONLY
  5 .debug_aranges 00000208  00000000  00000000  00000ee4  2**0
                  CONTENTS, READONLY, DEBUGGING
  6 .debug_info   00002784  00000000  00000000  000010ec  2**0
                  CONTENTS, READONLY, DEBUGGING
  7 .debug_abbrev 000010f4  00000000  00000000  00003870  2**0
                  CONTENTS, READONLY, DEBUGGING
  8 .debug_line   00000fd3  00000000  00000000  00004964  2**0
                  CONTENTS, READONLY, DEBUGGING
  9 .debug_frame  00000394  00000000  00000000  00005938  2**2
                  CONTENTS, READONLY, DEBUGGING
 10 .debug_str    000010b9  00000000  00000000  00005ccc  2**0
                  CONTENTS, READONLY, DEBUGGING
 11 .debug_loc    00000880  00000000  00000000  00006d85  2**0
                  CONTENTS, READONLY, DEBUGGING
 12 .debug_ranges 00000178  00000000  00000000  00007605  2**0
                  CONTENTS, READONLY, DEBUGGING

Disassembly of section .text:

00000000 <__vectors>:
   0:	0c 94 34 00 	jmp	0x68	; 0x68 <__ctors_end>
   4:	0c 94 51 00 	jmp	0xa2	; 0xa2 <__bad_interrupt>
   8:	0c 94 51 00 	jmp	0xa2	; 0xa2 <__bad_interrupt>
   c:	0c 94 51 00 	jmp	0xa2	; 0xa2 <__bad_interrupt>
  10:	0c 94 51 00 	jmp	0xa2	; 0xa2 <__bad_interrupt>
  14:	0c 94 51 00 	jmp	0xa2	; 0xa2 <__bad_interrupt>
  18:	0c 94 51 00 	jmp	0xa2	; 0xa2 <__bad_interrupt>
  1c:	0c 94 51 00 	jmp	0xa2	; 0xa2 <__bad_interrupt>
  20:	0c 94 51 00 	jmp	0xa2	; 0xa2 <__bad_interrupt>
  24:	0c 94 51 00 	jmp	0xa2	; 0xa2 <__bad_interrupt>
  28:	0c 94 51 00 	jmp	0xa2	; 0xa2 <__bad_interrupt>
  2c:	0c 94 51 00 	jmp	0xa2	; 0xa2 <__bad_interrupt>
  30:	0c 94 51 00 	jmp	0xa2	; 0xa2 <__bad_interrupt>
  34:	0c 94 51 00 	jmp	0xa2	; 0xa2 <__bad_interrupt>
  38:	0c 94 51 00 	jmp	0xa2	; 0xa2 <__bad_interrupt>
  3c:	0c 94 51 00 	jmp	0xa2	; 0xa2 <__bad_interrupt>
  40:	0c 94 51 00 	jmp	0xa2	; 0xa2 <__bad_interrupt>
  44:	0c 94 51 00 	jmp	0xa2	; 0xa2 <__bad_interrupt>
  48:	0c 94 51 00 	jmp	0xa2	; 0xa2 <__bad_interrupt>
  4c:	0c 94 51 00 	jmp	0xa2	; 0xa2 <__bad_interrupt>
  50:	0c 94 51 00 	jmp	0xa2	; 0xa2 <__bad_interrupt>
  54:	0c 94 51 00 	jmp	0xa2	; 0xa2 <__bad_interrupt>
  58:	0c 94 51 00 	jmp	0xa2	; 0xa2 <__bad_interrupt>
  5c:	0c 94 51 00 	jmp	0xa2	; 0xa2 <__bad_interrupt>
  60:	0c 94 51 00 	jmp	0xa2	; 0xa2 <__bad_interrupt>
  64:	0c 94 51 00 	jmp	0xa2	; 0xa2 <__bad_interrupt>

00000068 <__ctors_end>:
  68:	11 24       	eor	r1, r1
  6a:	1f be       	out	0x3f, r1	; 63
  6c:	cf ef       	ldi	r28, 0xFF	; 255
  6e:	d8 e0       	ldi	r29, 0x08	; 8
  70:	de bf       	out	0x3e, r29	; 62
  72:	cd bf       	out	0x3d, r28	; 61

00000074 <__do_copy_data>:
  74:	11 e0       	ldi	r17, 0x01	; 1
  76:	a0 e0       	ldi	r26, 0x00	; 0
  78:	b1 e0       	ldi	r27, 0x01	; 1
  7a:	e2 e7       	ldi	r30, 0x72	; 114
  7c:	fd e0       	ldi	r31, 0x0D	; 13
  7e:	02 c0       	rjmp	.+4      	; 0x84 <__do_copy_data+0x10>
  80:	05 90       	lpm	r0, Z+
  82:	0d 92       	st	X+, r0
  84:	ae 36       	cpi	r26, 0x6E	; 110
  86:	b1 07       	cpc	r27, r17
  88:	d9 f7       	brne	.-10     	; 0x80 <__do_copy_data+0xc>

0000008a <__do_clear_bss>:
  8a:	21 e0       	ldi	r18, 0x01	; 1
  8c:	ae e6       	ldi	r26, 0x6E	; 110
  8e:	b1 e0       	ldi	r27, 0x01	; 1
  90:	01 c0       	rjmp	.+2      	; 0x94 <.do_clear_bss_start>

00000092 <.do_clear_bss_loop>:
  92:	1d 92       	st	X+, r1

00000094 <.do_clear_bss_start>:
  94:	a7 3c       	cpi	r26, 0xC7	; 199
  96:	b2 07       	cpc	r27, r18
  98:	e1 f7       	brne	.-8      	; 0x92 <.do_clear_bss_loop>
  9a:	0e 94 88 00 	call	0x110	; 0x110 <main>
  9e:	0c 94 b7 06 	jmp	0xd6e	; 0xd6e <_exit>

000000a2 <__bad_interrupt>:
  a2:	0c 94 00 00 	jmp	0	; 0x0 <__vectors>

000000a6 <Appl__Initialize>:
//-------------------------------------- Public Functions -------------------------------------------------------------
//=====================================================================================================================


void Appl__Initialize(void){
	User_Action = EVENTS_NO_EVENT;
  a6:	8f ef       	ldi	r24, 0xFF	; 255
  a8:	80 93 6e 01 	sts	0x016E, r24	; 0x80016e <__data_end>
  ac:	08 95       	ret

000000ae <Appl__Handler>:
}


void Appl__Handler(void)
{
	User_Action = Display__GetEvent(); 
  ae:	0e 94 ad 04 	call	0x95a	; 0x95a <Display__GetEvent>
  b2:	80 93 6e 01 	sts	0x016E, r24	; 0x80016e <__data_end>
	if (User_Action != EVENTS_NO_EVENT)
  b6:	8f 3f       	cpi	r24, 0xFF	; 255
  b8:	51 f1       	breq	.+84     	; 0x10e <Appl__Handler+0x60>
	{
		switch(User_Action)
  ba:	81 30       	cpi	r24, 0x01	; 1
  bc:	69 f0       	breq	.+26     	; 0xd8 <Appl__Handler+0x2a>
  be:	28 f0       	brcs	.+10     	; 0xca <Appl__Handler+0x1c>
  c0:	82 30       	cpi	r24, 0x02	; 2
  c2:	89 f0       	breq	.+34     	; 0xe6 <Appl__Handler+0x38>
  c4:	83 30       	cpi	r24, 0x03	; 3
  c6:	b1 f0       	breq	.+44     	; 0xf4 <Appl__Handler+0x46>
  c8:	1c c0       	rjmp	.+56     	; 0x102 <Appl__Handler+0x54>
		{
			case KEY_OFF_EVENT:
			Display__SetState(OVEN_OFF);
  ca:	80 e0       	ldi	r24, 0x00	; 0
  cc:	0e 94 51 04 	call	0x8a2	; 0x8a2 <Display__SetState>
			OvenTempControl__SetLevel(TEMP_LEVEL_OVEN_OFF);
  d0:	83 e0       	ldi	r24, 0x03	; 3
  d2:	0e 94 09 01 	call	0x212	; 0x212 <OvenTempControl__SetLevel>
			break;
  d6:	08 95       	ret
			
			case KEY_MIN_EVENT:
			Display__SetState(OVEN_MIN);
  d8:	81 e0       	ldi	r24, 0x01	; 1
  da:	0e 94 51 04 	call	0x8a2	; 0x8a2 <Display__SetState>
			OvenTempControl__SetLevel(TEMP_LEVEL_MIN);
  de:	80 e0       	ldi	r24, 0x00	; 0
  e0:	0e 94 09 01 	call	0x212	; 0x212 <OvenTempControl__SetLevel>
			break;
  e4:	08 95       	ret
			
			case KEY_MED_EVENT:
			Display__SetState(OVEN_MED);
  e6:	82 e0       	ldi	r24, 0x02	; 2
  e8:	0e 94 51 04 	call	0x8a2	; 0x8a2 <Display__SetState>
			OvenTempControl__SetLevel(TEMP_LEVEL_MED);
  ec:	81 e0       	ldi	r24, 0x01	; 1
  ee:	0e 94 09 01 	call	0x212	; 0x212 <OvenTempControl__SetLevel>
			break;
  f2:	08 95       	ret
			
			case KEY_MAX_EVENT:
			Display__SetState(OVEN_MAX);
  f4:	83 e0       	ldi	r24, 0x03	; 3
  f6:	0e 94 51 04 	call	0x8a2	; 0x8a2 <Display__SetState>
			OvenTempControl__SetLevel(TEMP_LEVEL_MAX);
  fa:	82 e0       	ldi	r24, 0x02	; 2
  fc:	0e 94 09 01 	call	0x212	; 0x212 <OvenTempControl__SetLevel>
			break;
 100:	08 95       	ret

			default:
			Display__SetState(OVEN_OFF);
 102:	80 e0       	ldi	r24, 0x00	; 0
 104:	0e 94 51 04 	call	0x8a2	; 0x8a2 <Display__SetState>
			OvenTempControl__SetLevel(TEMP_LEVEL_OVEN_OFF);
 108:	83 e0       	ldi	r24, 0x03	; 3
 10a:	0e 94 09 01 	call	0x212	; 0x212 <OvenTempControl__SetLevel>
 10e:	08 95       	ret

00000110 <main>:
//=====================================================================================================================

void main(void)
{
	
	Slot = SLOT_1;
 110:	10 92 72 01 	sts	0x0172, r1	; 0x800172 <Slot>
	
	// Functions Initialization
	INITIALIZE_TASKS();
 114:	0e 94 3e 02 	call	0x47c	; 0x47c <Hal__Initialize>
 118:	0e 94 4b 04 	call	0x896	; 0x896 <Display__Initialize>
 11c:	0e 94 53 00 	call	0xa6	; 0xa6 <Appl__Initialize>
 120:	0e 94 0c 01 	call	0x218	; 0x218 <ADC__Initialize>
 124:	0e 94 cd 04 	call	0x99a	; 0x99a <TempSensor__Initialize>
 128:	0e 94 c2 00 	call	0x184	; 0x184 <OvenTempControl__Initialize>
	
	
	//Main Loop
	for(;;)
	{
		ALL_SLOTS_TASKS();
 12c:	0e 94 5c 03 	call	0x6b8	; 0x6b8 <Hal__FastHandler>
 130:	0e 94 d3 03 	call	0x7a6	; 0x7a6 <Hal__BackgroundHandler>
 134:	0e 94 32 01 	call	0x264	; 0x264 <ADC__Handler>
		switch(Slot){
 138:	80 91 72 01 	lds	r24, 0x0172	; 0x800172 <Slot>
 13c:	82 30       	cpi	r24, 0x02	; 2
 13e:	81 f0       	breq	.+32     	; 0x160 <main+0x50>
 140:	28 f4       	brcc	.+10     	; 0x14c <main+0x3c>
 142:	88 23       	and	r24, r24
 144:	a9 f0       	breq	.+42     	; 0x170 <main+0x60>
 146:	81 30       	cpi	r24, 0x01	; 1
 148:	31 f0       	breq	.+12     	; 0x156 <main+0x46>
 14a:	10 c0       	rjmp	.+32     	; 0x16c <main+0x5c>
 14c:	83 30       	cpi	r24, 0x03	; 3
 14e:	59 f0       	breq	.+22     	; 0x166 <main+0x56>
 150:	84 30       	cpi	r24, 0x04	; 4
 152:	71 f0       	breq	.+28     	; 0x170 <main+0x60>
 154:	0b c0       	rjmp	.+22     	; 0x16c <main+0x5c>
			case SLOT_1:
				SLOT_1_TASKS();
			break;

			case SLOT_2:
				SLOT_2_TASKS();
 156:	0e 94 57 00 	call	0xae	; 0xae <Appl__Handler>
 15a:	0e 94 c8 04 	call	0x990	; 0x990 <Display__Handler>
			break;
 15e:	08 c0       	rjmp	.+16     	; 0x170 <main+0x60>

			case SLOT_3:
				SLOT_3_TASKS();
 160:	0e 94 db 04 	call	0x9b6	; 0x9b6 <TempSensor__ConversionHandler>
			break;
 164:	05 c0       	rjmp	.+10     	; 0x170 <main+0x60>

			case SLOT_4:
				SLOT_4_TASKS();
 166:	0e 94 c8 00 	call	0x190	; 0x190 <OvenTempControl__Handler>
			break;
 16a:	02 c0       	rjmp	.+4      	; 0x170 <main+0x60>
			case SLOT_5:
				SLOT_5_TASKS();
			break;

			default:
				Slot = SLOT_1;
 16c:	10 92 72 01 	sts	0x0172, r1	; 0x800172 <Slot>
			break;

		}

		Slot++;
 170:	80 91 72 01 	lds	r24, 0x0172	; 0x800172 <Slot>
 174:	8f 5f       	subi	r24, 0xFF	; 255
 176:	80 93 72 01 	sts	0x0172, r24	; 0x800172 <Slot>
		if(Slot >= NUM_OF_MAIN_SLOTS){
 17a:	85 30       	cpi	r24, 0x05	; 5
 17c:	b8 f2       	brcs	.-82     	; 0x12c <main+0x1c>
			Slot = SLOT_1;
 17e:	10 92 72 01 	sts	0x0172, r1	; 0x800172 <Slot>
 182:	d4 cf       	rjmp	.-88     	; 0x12c <main+0x1c>

00000184 <OvenTempControl__Initialize>:


//---------------------------------------------------------------------------------------------------------------------
void OvenTempControl__Initialize(void)
{
	Oven_TempControl_State = OVEN_INSIDE_RANGE;   
 184:	10 92 74 01 	sts	0x0174, r1	; 0x800174 <Oven_TempControl_State>
	Current_Level = TEMP_LEVEL_OVEN_OFF;
 188:	83 e0       	ldi	r24, 0x03	; 3
 18a:	80 93 73 01 	sts	0x0173, r24	; 0x800173 <Current_Level>
 18e:	08 95       	ret

00000190 <OvenTempControl__Handler>:
// ************************************************************



void OvenTempControl__Handler(void)
{
 190:	ef 92       	push	r14
 192:	ff 92       	push	r15
 194:	0f 93       	push	r16
 196:	1f 93       	push	r17
 198:	cf 93       	push	r28
 19a:	df 93       	push	r29
	unsigned short int temp_on;
	unsigned short int temp_off;
	unsigned short int current_temp;

	temp_on = TEMP_CONTROL_PARAMETERS[Current_Level].Temp_On;
 19c:	e0 91 73 01 	lds	r30, 0x0173	; 0x800173 <Current_Level>
 1a0:	f0 e0       	ldi	r31, 0x00	; 0
 1a2:	ee 0f       	add	r30, r30
 1a4:	ff 1f       	adc	r31, r31
 1a6:	ee 0f       	add	r30, r30
 1a8:	ff 1f       	adc	r31, r31
 1aa:	ea 5e       	subi	r30, 0xEA	; 234
 1ac:	fe 4f       	sbci	r31, 0xFE	; 254
 1ae:	e0 80       	ld	r14, Z
 1b0:	f1 80       	ldd	r15, Z+1	; 0x01
	temp_off = TEMP_CONTROL_PARAMETERS[Current_Level].Temp_Off;
 1b2:	02 81       	ldd	r16, Z+2	; 0x02
 1b4:	13 81       	ldd	r17, Z+3	; 0x03
	current_temp = TempSensor__GetCelsius(OVEN_RELATED_SENSOR);
 1b6:	81 e0       	ldi	r24, 0x01	; 1
 1b8:	0e 94 12 05 	call	0xa24	; 0xa24 <TempSensor__GetCelsius>
 1bc:	ec 01       	movw	r28, r24

	if(Current_Level == TEMP_LEVEL_OVEN_OFF)
 1be:	80 91 73 01 	lds	r24, 0x0173	; 0x800173 <Current_Level>
 1c2:	83 30       	cpi	r24, 0x03	; 3
 1c4:	21 f4       	brne	.+8      	; 0x1ce <OvenTempControl__Handler+0x3e>
	{
		TURN_HEATER_OFF();
 1c6:	61 e0       	ldi	r22, 0x01	; 1
 1c8:	0e 94 97 02 	call	0x52e	; 0x52e <Hal__SetLed>
 1cc:	1b c0       	rjmp	.+54     	; 0x204 <OvenTempControl__Handler+0x74>
	}
	else
	{
		switch(Oven_TempControl_State)
 1ce:	80 91 74 01 	lds	r24, 0x0174	; 0x800174 <Oven_TempControl_State>
 1d2:	88 23       	and	r24, r24
 1d4:	19 f0       	breq	.+6      	; 0x1dc <OvenTempControl__Handler+0x4c>
 1d6:	81 30       	cpi	r24, 0x01	; 1
 1d8:	61 f0       	breq	.+24     	; 0x1f2 <OvenTempControl__Handler+0x62>
 1da:	14 c0       	rjmp	.+40     	; 0x204 <OvenTempControl__Handler+0x74>
		{
		case OVEN_INSIDE_RANGE:                    
			TURN_HEATER_OFF();
 1dc:	61 e0       	ldi	r22, 0x01	; 1
 1de:	83 e0       	ldi	r24, 0x03	; 3
 1e0:	0e 94 97 02 	call	0x52e	; 0x52e <Hal__SetLed>
			if(current_temp <= temp_on)
 1e4:	ec 16       	cp	r14, r28
 1e6:	fd 06       	cpc	r15, r29
 1e8:	68 f0       	brcs	.+26     	; 0x204 <OvenTempControl__Handler+0x74>
			{
				Oven_TempControl_State = OVEN_HEATING;
 1ea:	81 e0       	ldi	r24, 0x01	; 1
 1ec:	80 93 74 01 	sts	0x0174, r24	; 0x800174 <Oven_TempControl_State>
 1f0:	09 c0       	rjmp	.+18     	; 0x204 <OvenTempControl__Handler+0x74>
			}
			break;

		case OVEN_HEATING:
			TURN_HEATER_ON();
 1f2:	60 e0       	ldi	r22, 0x00	; 0
 1f4:	83 e0       	ldi	r24, 0x03	; 3
 1f6:	0e 94 97 02 	call	0x52e	; 0x52e <Hal__SetLed>
			if(current_temp >= temp_off)
 1fa:	c0 17       	cp	r28, r16
 1fc:	d1 07       	cpc	r29, r17
 1fe:	10 f0       	brcs	.+4      	; 0x204 <OvenTempControl__Handler+0x74>
			{
				Oven_TempControl_State = OVEN_INSIDE_RANGE;
 200:	10 92 74 01 	sts	0x0174, r1	; 0x800174 <Oven_TempControl_State>
			}

			break;
		}
	}
}
 204:	df 91       	pop	r29
 206:	cf 91       	pop	r28
 208:	1f 91       	pop	r17
 20a:	0f 91       	pop	r16
 20c:	ff 90       	pop	r15
 20e:	ef 90       	pop	r14
 210:	08 95       	ret

00000212 <OvenTempControl__SetLevel>:

// ****************************************************

void OvenTempControl__SetLevel(OVEN_TEMP_CONTROL_LEVELS_TYPE level)
{
	Current_Level = level;
 212:	80 93 73 01 	sts	0x0173, r24	; 0x800173 <Current_Level>
 216:	08 95       	ret

00000218 <ADC__Initialize>:
	volatile ADC_REG_TYPE *adc_pt;   // tipo definido no micro.h
	adc_pt = ADC_REGISTERS;          // adc_pt aponta par ao inicio dos regs do ADC ($000078)
	
	

	Adc_Step = ADC_STEP_INIT;   // inicializa o Adc_Step em INIT
 218:	10 92 81 01 	sts	0x0181, r1	; 0x800181 <Adc_Step>
	Sampling_Time = 0;
 21c:	10 92 82 01 	sts	0x0182, r1	; 0x800182 <Sampling_Time>
	adc_pt->DIDR0_REG.byte =0x00;  //  nenhuma entrada analógica habilitada
 220:	10 92 7e 00 	sts	0x007E, r1	; 0x80007e <__TEXT_REGION_LENGTH__+0x7f807e>
	
	for(channel = 0; channel <NUM_OF_AD_CHANNELS ; channel++)
 224:	80 e0       	ldi	r24, 0x00	; 0
 226:	1b c0       	rjmp	.+54     	; 0x25e <ADC__Initialize+0x46>
	 {
		ADC_Buffer[channel] = 0;
 228:	28 2f       	mov	r18, r24
 22a:	30 e0       	ldi	r19, 0x00	; 0
 22c:	f9 01       	movw	r30, r18
 22e:	ee 0f       	add	r30, r30
 230:	ff 1f       	adc	r31, r31
 232:	eb 58       	subi	r30, 0x8B	; 139
 234:	fe 4f       	sbci	r31, 0xFE	; 254
 236:	11 82       	std	Z+1, r1	; 0x01
 238:	10 82       	st	Z, r1

		if(Adc_Enable_Table[channel] == ENABLED)      // se o canal é habilitado, então deixa analógico
 23a:	f9 01       	movw	r30, r18
 23c:	e4 5d       	subi	r30, 0xD4	; 212
 23e:	fe 4f       	sbci	r31, 0xFE	; 254
 240:	90 81       	ld	r25, Z
 242:	91 30       	cpi	r25, 0x01	; 1
 244:	59 f4       	brne	.+22     	; 0x25c <ADC__Initialize+0x44>
		{
			// Configures relative input as analog input
			if(channel < NUM_OF_AD_CHANNELS) 
 246:	86 30       	cpi	r24, 0x06	; 6
 248:	48 f4       	brcc	.+18     	; 0x25c <ADC__Initialize+0x44>
			   {							// CH0 to CH5 are configured in DIDR0
			   adc_pt->DIDR0_REG.byte |= ADC_BIT_SET_MASK[channel];	// configura como analógico conforme o canal enabled
 24a:	e8 e7       	ldi	r30, 0x78	; 120
 24c:	f0 e0       	ldi	r31, 0x00	; 0
 24e:	46 81       	ldd	r20, Z+6	; 0x06
 250:	d9 01       	movw	r26, r18
 252:	aa 5d       	subi	r26, 0xDA	; 218
 254:	be 4f       	sbci	r27, 0xFE	; 254
 256:	9c 91       	ld	r25, X
 258:	94 2b       	or	r25, r20
 25a:	96 83       	std	Z+6, r25	; 0x06

	Adc_Step = ADC_STEP_INIT;   // inicializa o Adc_Step em INIT
	Sampling_Time = 0;
	adc_pt->DIDR0_REG.byte =0x00;  //  nenhuma entrada analógica habilitada
	
	for(channel = 0; channel <NUM_OF_AD_CHANNELS ; channel++)
 25c:	8f 5f       	subi	r24, 0xFF	; 255
 25e:	86 30       	cpi	r24, 0x06	; 6
 260:	18 f3       	brcs	.-58     	; 0x228 <ADC__Initialize+0x10>
			   {							// CH0 to CH5 are configured in DIDR0
			   adc_pt->DIDR0_REG.byte |= ADC_BIT_SET_MASK[channel];	// configura como analógico conforme o canal enabled
			   }
		}
	 }  
}
 262:	08 95       	ret

00000264 <ADC__Handler>:
	unsigned short int value, value_high;
	volatile ADC_REG_TYPE *adc_pt;
	adc_pt = ADC_REGISTERS;
	

	switch(Adc_Step)
 264:	80 91 81 01 	lds	r24, 0x0181	; 0x800181 <Adc_Step>
 268:	82 30       	cpi	r24, 0x02	; 2
 26a:	79 f1       	breq	.+94     	; 0x2ca <ADC__Handler+0x66>
 26c:	28 f4       	brcc	.+10     	; 0x278 <ADC__Handler+0x14>
 26e:	88 23       	and	r24, r24
 270:	41 f0       	breq	.+16     	; 0x282 <ADC__Handler+0x1e>
 272:	81 30       	cpi	r24, 0x01	; 1
 274:	f1 f0       	breq	.+60     	; 0x2b2 <ADC__Handler+0x4e>
 276:	62 c0       	rjmp	.+196    	; 0x33c <ADC__Handler+0xd8>
 278:	83 30       	cpi	r24, 0x03	; 3
 27a:	b9 f1       	breq	.+110    	; 0x2ea <ADC__Handler+0x86>
 27c:	84 30       	cpi	r24, 0x04	; 4
 27e:	e9 f1       	breq	.+122    	; 0x2fa <ADC__Handler+0x96>
 280:	5d c0       	rjmp	.+186    	; 0x33c <ADC__Handler+0xd8>
	{
	case ADC_STEP_INIT:
		Adc_Channel++;											// Selects next channel
 282:	80 91 83 01 	lds	r24, 0x0183	; 0x800183 <Adc_Channel>
 286:	8f 5f       	subi	r24, 0xFF	; 255
 288:	80 93 83 01 	sts	0x0183, r24	; 0x800183 <Adc_Channel>
		if(Adc_Channel >= NUM_OF_AD_CHANNELS)
 28c:	86 30       	cpi	r24, 0x06	; 6
 28e:	10 f0       	brcs	.+4      	; 0x294 <ADC__Handler+0x30>
		{
			Adc_Channel = AD_CH0;  // varre constantemente todas os canais
 290:	10 92 83 01 	sts	0x0183, r1	; 0x800183 <Adc_Channel>
		}

		if(Adc_Enable_Table[Adc_Channel] == ENABLED)			// Checks if current channel is enabled
 294:	e0 91 83 01 	lds	r30, 0x0183	; 0x800183 <Adc_Channel>
 298:	f0 e0       	ldi	r31, 0x00	; 0
 29a:	e4 5d       	subi	r30, 0xD4	; 212
 29c:	fe 4f       	sbci	r31, 0xFE	; 254
 29e:	80 81       	ld	r24, Z
 2a0:	81 30       	cpi	r24, 0x01	; 1
 2a2:	09 f0       	breq	.+2      	; 0x2a6 <ADC__Handler+0x42>
 2a4:	4d c0       	rjmp	.+154    	; 0x340 <ADC__Handler+0xdc>
		{
			Adc_Step = ADC_STEP_SAMPLING;
 2a6:	80 93 81 01 	sts	0x0181, r24	; 0x800181 <Adc_Step>
			Sampling_Time = ADC_SAMPLING_TIME;
 2aa:	82 e3       	ldi	r24, 0x32	; 50
 2ac:	80 93 82 01 	sts	0x0182, r24	; 0x800182 <Sampling_Time>
 2b0:	08 95       	ret
		}
		break;

	case ADC_STEP_SAMPLING:
		if(Sampling_Time)
 2b2:	80 91 82 01 	lds	r24, 0x0182	; 0x800182 <Sampling_Time>
 2b6:	88 23       	and	r24, r24
 2b8:	21 f0       	breq	.+8      	; 0x2c2 <ADC__Handler+0x5e>
		{
			Sampling_Time--;
 2ba:	81 50       	subi	r24, 0x01	; 1
 2bc:	80 93 82 01 	sts	0x0182, r24	; 0x800182 <Sampling_Time>
 2c0:	08 95       	ret
		}
		else
		{
			Adc_Step = ADC_STEP_CONFIG_CHANNEL;	
 2c2:	82 e0       	ldi	r24, 0x02	; 2
 2c4:	80 93 81 01 	sts	0x0181, r24	; 0x800181 <Adc_Step>
 2c8:	08 95       	ret
		}
		break;

	case ADC_STEP_CONFIG_CHANNEL:
	    adc_pt->ADMUX_REG.byte |= (unsigned char)Adc_Channel;	// Configures the channel be read
 2ca:	e8 e7       	ldi	r30, 0x78	; 120
 2cc:	f0 e0       	ldi	r31, 0x00	; 0
 2ce:	94 81       	ldd	r25, Z+4	; 0x04
 2d0:	80 91 83 01 	lds	r24, 0x0183	; 0x800183 <Adc_Channel>
 2d4:	89 2b       	or	r24, r25
 2d6:	84 83       	std	Z+4, r24	; 0x04
		// ADC habilitado, sem auto trigger, sem interrupção, prescaler 128
		adc_pt->ADCSRA_REG.byte =  0x87; 
 2d8:	87 e8       	ldi	r24, 0x87	; 135
 2da:	82 83       	std	Z+2, r24	; 0x02
		// INICIA conversão
		adc_pt->ADCSRA_REG.bit.bit6  = 1;    //seta bit 6 (ADSC)
 2dc:	82 81       	ldd	r24, Z+2	; 0x02
 2de:	80 64       	ori	r24, 0x40	; 64
 2e0:	82 83       	std	Z+2, r24	; 0x02
		Adc_Step = ADC_STEP_WAIT_CONVERSION;					// Set next step
 2e2:	83 e0       	ldi	r24, 0x03	; 3
 2e4:	80 93 81 01 	sts	0x0181, r24	; 0x800181 <Adc_Step>
		break;
 2e8:	08 95       	ret
		
	case ADC_STEP_WAIT_CONVERSION:
		if(adc_pt->ADCSRA_REG.bit.bit6 == 0)	// Wait until conversion be completed
 2ea:	80 91 7a 00 	lds	r24, 0x007A	; 0x80007a <__TEXT_REGION_LENGTH__+0x7f807a>
 2ee:	86 fd       	sbrc	r24, 6
 2f0:	27 c0       	rjmp	.+78     	; 0x340 <ADC__Handler+0xdc>
		   	Adc_Step = ADC_STEP_READ_RESULT;
 2f2:	84 e0       	ldi	r24, 0x04	; 4
 2f4:	80 93 81 01 	sts	0x0181, r24	; 0x800181 <Adc_Step>
 2f8:	08 95       	ret
		break;

	case ADC_STEP_READ_RESULT:  // AQUI é feita a leitura do ADC físico!!!
	    if(adc_pt->ADMUX_REG.bit.bit5 == 1)   //8 bits
 2fa:	80 91 7c 00 	lds	r24, 0x007C	; 0x80007c <__TEXT_REGION_LENGTH__+0x7f807c>
 2fe:	85 ff       	sbrs	r24, 5
 300:	04 c0       	rjmp	.+8      	; 0x30a <ADC__Handler+0xa6>
		   value = (unsigned short int)(adc_pt->ADCH_REG.byte)& (LO_BYTE_MASK); // 8 bits   testado ok
 302:	80 91 79 00 	lds	r24, 0x0079	; 0x800079 <__TEXT_REGION_LENGTH__+0x7f8079>
 306:	28 2f       	mov	r18, r24
 308:	30 e0       	ldi	r19, 0x00	; 0
		if(adc_pt->ADMUX_REG.bit.bit5 == 0)    // 10 bits
 30a:	80 91 7c 00 	lds	r24, 0x007C	; 0x80007c <__TEXT_REGION_LENGTH__+0x7f807c>
 30e:	85 fd       	sbrc	r24, 5
 310:	09 c0       	rjmp	.+18     	; 0x324 <ADC__Handler+0xc0>
		   {
			value = (unsigned short int)((adc_pt->ADCL_REG.byte)& LO_BYTE_MASK);
 312:	e8 e7       	ldi	r30, 0x78	; 120
 314:	f0 e0       	ldi	r31, 0x00	; 0
 316:	20 81       	ld	r18, Z
			value_high = (unsigned short int)(adc_pt->ADCH_REG.byte <<8); 
 318:	31 81       	ldd	r19, Z+1	; 0x01
 31a:	80 e0       	ldi	r24, 0x00	; 0
 31c:	93 2f       	mov	r25, r19
			value |= value_high;	// Reads the conversion result bytes  
 31e:	ac 01       	movw	r20, r24
 320:	42 2b       	or	r20, r18
 322:	9a 01       	movw	r18, r20
		   }

		ADC_Buffer[Adc_Channel] = value;  // A leitura do ADC é colocado no buffer ADC_Buffer do respectivo canal.
 324:	e0 91 83 01 	lds	r30, 0x0183	; 0x800183 <Adc_Channel>
 328:	f0 e0       	ldi	r31, 0x00	; 0
 32a:	ee 0f       	add	r30, r30
 32c:	ff 1f       	adc	r31, r31
 32e:	eb 58       	subi	r30, 0x8B	; 139
 330:	fe 4f       	sbci	r31, 0xFE	; 254
 332:	31 83       	std	Z+1, r19	; 0x01
 334:	20 83       	st	Z, r18
		Adc_Step = ADC_STEP_INIT;
 336:	10 92 81 01 	sts	0x0181, r1	; 0x800181 <Adc_Step>
		
		   //if (value >= 127)
		    //Hal__SetLed(LED_3, 0); //liga LED4
		  //else
		    //Hal__SetLed(LED_3, 1); //desliga LED4
	 	 break;
 33a:	08 95       	ret

	default:
		Adc_Step = ADC_STEP_INIT;
 33c:	10 92 81 01 	sts	0x0181, r1	; 0x800181 <Adc_Step>
 340:	08 95       	ret

00000342 <ADC__ConfigModes>:
	volatile ADC_REG_TYPE *adc_pt;
	adc_pt = ADC_REGISTERS;
	
	
	 	// seleção da tensão de referencia:
	adc_pt->ADMUX_REG.bit.bit7 = 0;   //tensão de referencia 5V
 342:	e8 e7       	ldi	r30, 0x78	; 120
 344:	f0 e0       	ldi	r31, 0x00	; 0
 346:	94 81       	ldd	r25, Z+4	; 0x04
 348:	9f 77       	andi	r25, 0x7F	; 127
 34a:	94 83       	std	Z+4, r25	; 0x04
	adc_pt->ADMUX_REG.bit.bit6 = 1;   //tensão de referencia 5V
 34c:	94 81       	ldd	r25, Z+4	; 0x04
 34e:	90 64       	ori	r25, 0x40	; 64
 350:	94 83       	std	Z+4, r25	; 0x04
	
	if(mode < NUM_OF_MODES)
 352:	82 30       	cpi	r24, 0x02	; 2
 354:	60 f4       	brcc	.+24     	; 0x36e <ADC__ConfigModes+0x2c>
	{
		if (mode == MODE_8BITS)
 356:	81 11       	cpse	r24, r1
 358:	03 c0       	rjmp	.+6      	; 0x360 <ADC__ConfigModes+0x1e>
		   adc_pt->ADMUX_REG.bit.bit5 = 1;  //Micro.h => ADLAR = 1, alinhado a esquerda e a leitura é no ADCH (8 bits)
 35a:	94 81       	ldd	r25, Z+4	; 0x04
 35c:	90 62       	ori	r25, 0x20	; 32
 35e:	94 83       	std	Z+4, r25	; 0x04
		if (mode == MODE_10BITS)
 360:	81 30       	cpi	r24, 0x01	; 1
 362:	29 f4       	brne	.+10     	; 0x36e <ADC__ConfigModes+0x2c>
		   adc_pt->ADMUX_REG.bit.bit5 = 0;  //ADLAR = 0, alinhado a direita e a leitura é primeiro no ADCL e depois ADCH (10 bits)
 364:	e8 e7       	ldi	r30, 0x78	; 120
 366:	f0 e0       	ldi	r31, 0x00	; 0
 368:	84 81       	ldd	r24, Z+4	; 0x04
 36a:	8f 7d       	andi	r24, 0xDF	; 223
 36c:	84 83       	std	Z+4, r24	; 0x04
	}
		
	if(conv_type < NUM_OF_CONVERSION_TYPES)
 36e:	62 30       	cpi	r22, 0x02	; 2
 370:	98 f4       	brcc	.+38     	; 0x398 <ADC__ConfigModes+0x56>
	{
		if (conv_type == AD_SINGLE_CONVERSION)
 372:	61 11       	cpse	r22, r1
 374:	05 c0       	rjmp	.+10     	; 0x380 <ADC__ConfigModes+0x3e>
		   adc_pt->ADCSRA_REG.bit.bit5 = 0;      //Micro.h => ADATE = 0, uma leitura
 376:	e8 e7       	ldi	r30, 0x78	; 120
 378:	f0 e0       	ldi	r31, 0x00	; 0
 37a:	82 81       	ldd	r24, Z+2	; 0x02
 37c:	8f 7d       	andi	r24, 0xDF	; 223
 37e:	82 83       	std	Z+2, r24	; 0x02
		if (conv_type == AD_CONTINUOUS_CONVERSION)
 380:	61 30       	cpi	r22, 0x01	; 1
 382:	29 f4       	brne	.+10     	; 0x38e <ADC__ConfigModes+0x4c>
		   adc_pt->ADCSRA_REG.bit.bit5 = 1;      //ADATE = 1, a fonte de disparo pode ser conversão continua, comparador analogico, etc 
 384:	e8 e7       	ldi	r30, 0x78	; 120
 386:	f0 e0       	ldi	r31, 0x00	; 0
 388:	82 81       	ldd	r24, Z+2	; 0x02
 38a:	80 62       	ori	r24, 0x20	; 32
 38c:	82 83       	std	Z+2, r24	; 0x02
		   adc_pt->ADCSRB_REG.byte &= 0xF8; // no ATDS2:0, 0xF8 = 0b1111000 -> ADCSRB and 0b11111000 = 0bXXXXX000
 38e:	e8 e7       	ldi	r30, 0x78	; 120
 390:	f0 e0       	ldi	r31, 0x00	; 0
 392:	83 81       	ldd	r24, Z+3	; 0x03
 394:	88 7f       	andi	r24, 0xF8	; 248
 396:	83 83       	std	Z+3, r24	; 0x03
 398:	08 95       	ret

0000039a <ADC__GetValue>:
 */


unsigned short int ADC__GetValue(AD_CHANNEL_TYPE channel)
{
	if(channel < NUM_OF_AD_CHANNELS)
 39a:	86 30       	cpi	r24, 0x06	; 6
 39c:	48 f4       	brcc	.+18     	; 0x3b0 <ADC__GetValue+0x16>
	{
		return ADC_Buffer[channel];  // retorna valor do ADC lido no ADC_Buffer do canal solcitado!
 39e:	e8 2f       	mov	r30, r24
 3a0:	f0 e0       	ldi	r31, 0x00	; 0
 3a2:	ee 0f       	add	r30, r30
 3a4:	ff 1f       	adc	r31, r31
 3a6:	eb 58       	subi	r30, 0x8B	; 139
 3a8:	fe 4f       	sbci	r31, 0xFE	; 254
 3aa:	80 81       	ld	r24, Z
 3ac:	91 81       	ldd	r25, Z+1	; 0x01
 3ae:	08 95       	ret
	}
	return 0;
 3b0:	80 e0       	ldi	r24, 0x00	; 0
 3b2:	90 e0       	ldi	r25, 0x00	; 0
}
 3b4:	08 95       	ret

000003b6 <GPIO_CONFIG>:
 3b6:	83 30       	cpi	r24, 0x03	; 3
 3b8:	58 f5       	brcc	.+86     	; 0x410 <__EEPROM_REGION_LENGTH__+0x10>
 3ba:	68 30       	cpi	r22, 0x08	; 8
 3bc:	48 f5       	brcc	.+82     	; 0x410 <__EEPROM_REGION_LENGTH__+0x10>
 3be:	70 e0       	ldi	r23, 0x00	; 0
 3c0:	fb 01       	movw	r30, r22
 3c2:	e6 5c       	subi	r30, 0xC6	; 198
 3c4:	fe 4f       	sbci	r31, 0xFE	; 254
 3c6:	20 81       	ld	r18, Z
 3c8:	fb 01       	movw	r30, r22
 3ca:	ee 5c       	subi	r30, 0xCE	; 206
 3cc:	fe 4f       	sbci	r31, 0xFE	; 254
 3ce:	90 81       	ld	r25, Z
 3d0:	e8 2f       	mov	r30, r24
 3d2:	f0 e0       	ldi	r31, 0x00	; 0
 3d4:	ee 0f       	add	r30, r30
 3d6:	ff 1f       	adc	r31, r31
 3d8:	e0 50       	subi	r30, 0x00	; 0
 3da:	ff 4f       	sbci	r31, 0xFF	; 255
 3dc:	01 90       	ld	r0, Z+
 3de:	f0 81       	ld	r31, Z
 3e0:	e0 2d       	mov	r30, r0
 3e2:	41 30       	cpi	r20, 0x01	; 1
 3e4:	59 f0       	breq	.+22     	; 0x3fc <GPIO_CONFIG+0x46>
 3e6:	18 f0       	brcs	.+6      	; 0x3ee <GPIO_CONFIG+0x38>
 3e8:	42 30       	cpi	r20, 0x02	; 2
 3ea:	79 f0       	breq	.+30     	; 0x40a <__EEPROM_REGION_LENGTH__+0xa>
 3ec:	08 95       	ret
 3ee:	81 81       	ldd	r24, Z+1	; 0x01
 3f0:	98 23       	and	r25, r24
 3f2:	91 83       	std	Z+1, r25	; 0x01
 3f4:	82 81       	ldd	r24, Z+2	; 0x02
 3f6:	28 2b       	or	r18, r24
 3f8:	22 83       	std	Z+2, r18	; 0x02
 3fa:	08 95       	ret
 3fc:	81 81       	ldd	r24, Z+1	; 0x01
 3fe:	89 23       	and	r24, r25
 400:	81 83       	std	Z+1, r24	; 0x01
 402:	82 81       	ldd	r24, Z+2	; 0x02
 404:	98 23       	and	r25, r24
 406:	92 83       	std	Z+2, r25	; 0x02
 408:	08 95       	ret
 40a:	81 81       	ldd	r24, Z+1	; 0x01
 40c:	28 2b       	or	r18, r24
 40e:	21 83       	std	Z+1, r18	; 0x01
 410:	08 95       	ret

00000412 <GPIO_PIN_WRITE>:
 412:	e8 2f       	mov	r30, r24
 414:	f0 e0       	ldi	r31, 0x00	; 0
 416:	ee 0f       	add	r30, r30
 418:	ff 1f       	adc	r31, r31
 41a:	e0 50       	subi	r30, 0x00	; 0
 41c:	ff 4f       	sbci	r31, 0xFF	; 255
 41e:	a0 81       	ld	r26, Z
 420:	b1 81       	ldd	r27, Z+1	; 0x01
 422:	41 30       	cpi	r20, 0x01	; 1
 424:	61 f4       	brne	.+24     	; 0x43e <GPIO_PIN_WRITE+0x2c>
 426:	12 96       	adiw	r26, 0x02	; 2
 428:	9c 91       	ld	r25, X
 42a:	12 97       	sbiw	r26, 0x02	; 2
 42c:	e6 2f       	mov	r30, r22
 42e:	f0 e0       	ldi	r31, 0x00	; 0
 430:	e6 5c       	subi	r30, 0xC6	; 198
 432:	fe 4f       	sbci	r31, 0xFE	; 254
 434:	80 81       	ld	r24, Z
 436:	89 2b       	or	r24, r25
 438:	12 96       	adiw	r26, 0x02	; 2
 43a:	8c 93       	st	X, r24
 43c:	08 95       	ret
 43e:	12 96       	adiw	r26, 0x02	; 2
 440:	9c 91       	ld	r25, X
 442:	12 97       	sbiw	r26, 0x02	; 2
 444:	e6 2f       	mov	r30, r22
 446:	f0 e0       	ldi	r31, 0x00	; 0
 448:	ee 5c       	subi	r30, 0xCE	; 206
 44a:	fe 4f       	sbci	r31, 0xFE	; 254
 44c:	80 81       	ld	r24, Z
 44e:	89 23       	and	r24, r25
 450:	12 96       	adiw	r26, 0x02	; 2
 452:	8c 93       	st	X, r24
 454:	08 95       	ret

00000456 <GPIO_PIN_READ>:
 456:	e8 2f       	mov	r30, r24
 458:	f0 e0       	ldi	r31, 0x00	; 0
 45a:	ee 0f       	add	r30, r30
 45c:	ff 1f       	adc	r31, r31
 45e:	e0 50       	subi	r30, 0x00	; 0
 460:	ff 4f       	sbci	r31, 0xFF	; 255
 462:	01 90       	ld	r0, Z+
 464:	f0 81       	ld	r31, Z
 466:	e0 2d       	mov	r30, r0
 468:	90 81       	ld	r25, Z
 46a:	e6 2f       	mov	r30, r22
 46c:	f0 e0       	ldi	r31, 0x00	; 0
 46e:	e6 5c       	subi	r30, 0xC6	; 198
 470:	fe 4f       	sbci	r31, 0xFE	; 254
 472:	80 81       	ld	r24, Z
 474:	89 23       	and	r24, r25
 476:	09 f0       	breq	.+2      	; 0x47a <GPIO_PIN_READ+0x24>
 478:	81 e0       	ldi	r24, 0x01	; 1
 47a:	08 95       	ret

0000047c <Hal__Initialize>:
/*
 * Call this function on initialize tasks before use any function of this module
 * This function will properly configure all pins before use it
 */
void Hal__Initialize(void)
{
 47c:	cf 93       	push	r28
	LED_OUTPUT_TYPE led_index;
	KEY_INPUT_TYPE key_index;
	ANALOG_INPUT_TYPE analog_index;
	
	// LEDs Configuration
	for(led_index = 0; led_index < NUM_OF_LEDS; led_index++)
 47e:	c0 e0       	ldi	r28, 0x00	; 0
 480:	0c c0       	rjmp	.+24     	; 0x49a <Hal__Initialize+0x1e>
	{
		GPIO_CONFIG(LED_GPIO[led_index].port, LED_GPIO[led_index].pin, OUTPUT_DIGITAL);
 482:	ec 2f       	mov	r30, r28
 484:	f0 e0       	ldi	r31, 0x00	; 0
 486:	ee 0f       	add	r30, r30
 488:	ff 1f       	adc	r31, r31
 48a:	e2 5f       	subi	r30, 0xF2	; 242
 48c:	fe 4f       	sbci	r31, 0xFE	; 254
 48e:	42 e0       	ldi	r20, 0x02	; 2
 490:	61 81       	ldd	r22, Z+1	; 0x01
 492:	80 81       	ld	r24, Z
 494:	0e 94 db 01 	call	0x3b6	; 0x3b6 <GPIO_CONFIG>
	LED_OUTPUT_TYPE led_index;
	KEY_INPUT_TYPE key_index;
	ANALOG_INPUT_TYPE analog_index;
	
	// LEDs Configuration
	for(led_index = 0; led_index < NUM_OF_LEDS; led_index++)
 498:	cf 5f       	subi	r28, 0xFF	; 255
 49a:	c4 30       	cpi	r28, 0x04	; 4
 49c:	90 f3       	brcs	.-28     	; 0x482 <Hal__Initialize+0x6>
 49e:	c0 e0       	ldi	r28, 0x00	; 0
 4a0:	0c c0       	rjmp	.+24     	; 0x4ba <Hal__Initialize+0x3e>
	
	
	// Keys Configuration
	for(key_index = 0; key_index < NUM_OF_KEYS; key_index++)
	{
		GPIO_CONFIG(KEYS_GPIO[key_index].port, KEYS_GPIO[key_index].pin, INPUT_DIGITAL_PULLUP);
 4a2:	ec 2f       	mov	r30, r28
 4a4:	f0 e0       	ldi	r31, 0x00	; 0
 4a6:	ee 0f       	add	r30, r30
 4a8:	ff 1f       	adc	r31, r31
 4aa:	ea 5f       	subi	r30, 0xFA	; 250
 4ac:	fe 4f       	sbci	r31, 0xFE	; 254
 4ae:	40 e0       	ldi	r20, 0x00	; 0
 4b0:	61 81       	ldd	r22, Z+1	; 0x01
 4b2:	80 81       	ld	r24, Z
 4b4:	0e 94 db 01 	call	0x3b6	; 0x3b6 <GPIO_CONFIG>
		GPIO_CONFIG(LED_GPIO[led_index].port, LED_GPIO[led_index].pin, OUTPUT_DIGITAL);
	}
	
	
	// Keys Configuration
	for(key_index = 0; key_index < NUM_OF_KEYS; key_index++)
 4b8:	cf 5f       	subi	r28, 0xFF	; 255
 4ba:	c4 30       	cpi	r28, 0x04	; 4
 4bc:	90 f3       	brcs	.-28     	; 0x4a2 <Hal__Initialize+0x26>
	{
		GPIO_CONFIG(KEYS_GPIO[key_index].port, KEYS_GPIO[key_index].pin, INPUT_DIGITAL_PULLUP);
	}
	
	// Configuration of 7 segment's
	GPIO_CONFIG(PORT_D,4,OUTPUT_DIGITAL);
 4be:	42 e0       	ldi	r20, 0x02	; 2
 4c0:	64 e0       	ldi	r22, 0x04	; 4
 4c2:	82 e0       	ldi	r24, 0x02	; 2
 4c4:	0e 94 db 01 	call	0x3b6	; 0x3b6 <GPIO_CONFIG>
	GPIO_CONFIG(PORT_D,7,OUTPUT_DIGITAL);
 4c8:	42 e0       	ldi	r20, 0x02	; 2
 4ca:	67 e0       	ldi	r22, 0x07	; 7
 4cc:	82 e0       	ldi	r24, 0x02	; 2
 4ce:	0e 94 db 01 	call	0x3b6	; 0x3b6 <GPIO_CONFIG>
	GPIO_CONFIG(PORT_B,0,OUTPUT_DIGITAL);
 4d2:	42 e0       	ldi	r20, 0x02	; 2
 4d4:	60 e0       	ldi	r22, 0x00	; 0
 4d6:	80 e0       	ldi	r24, 0x00	; 0
 4d8:	0e 94 db 01 	call	0x3b6	; 0x3b6 <GPIO_CONFIG>
	
	// Analog Inputs Configuration - modo de conversão e resolução e inicializa os buffers de várias leitura do ADC
	ADC__ConfigModes(HAL_ANALOG_MODE,HAL_CONVERSION_METHOD);
 4dc:	61 e0       	ldi	r22, 0x01	; 1
 4de:	81 e0       	ldi	r24, 0x01	; 1
 4e0:	0e 94 a1 01 	call	0x342	; 0x342 <ADC__ConfigModes>
	AD_Mux_State = 	MUX_INIT;
 4e4:	10 92 ad 01 	sts	0x01AD, r1	; 0x8001ad <AD_Mux_State>
	AD_Channel = POT_EXT;  // equivalente ao canal AD5 do arduino
 4e8:	85 e0       	ldi	r24, 0x05	; 5
 4ea:	80 93 84 01 	sts	0x0184, r24	; 0x800184 <AD_Channel>

	for(analog_index = 0; analog_index < NUM_OF_ANALOG_INPUT; analog_index++)
 4ee:	80 e0       	ldi	r24, 0x00	; 0
 4f0:	1a c0       	rjmp	.+52     	; 0x526 <Hal__Initialize+0xaa>
	{
		if(AD_Enable_Table[analog_index] == ENABLED)
 4f2:	28 2f       	mov	r18, r24
 4f4:	30 e0       	ldi	r19, 0x00	; 0
 4f6:	f9 01       	movw	r30, r18
 4f8:	e8 5b       	subi	r30, 0xB8	; 184
 4fa:	fe 4f       	sbci	r31, 0xFE	; 254
 4fc:	90 81       	ld	r25, Z
 4fe:	91 30       	cpi	r25, 0x01	; 1
 500:	89 f4       	brne	.+34     	; 0x524 <Hal__Initialize+0xa8>
		{
			Hal_Analog_Inputs[analog_index] = 0;   // zera o buffer de valor de cada canal
 502:	a9 01       	movw	r20, r18
 504:	44 0f       	add	r20, r20
 506:	55 1f       	adc	r21, r21
 508:	fa 01       	movw	r30, r20
 50a:	ef 55       	subi	r30, 0x5F	; 95
 50c:	fe 4f       	sbci	r31, 0xFE	; 254
 50e:	11 82       	std	Z+1, r1	; 0x01
 510:	10 82       	st	Z, r1
			AD_Accumulator[analog_index] = 0;
 512:	fa 01       	movw	r30, r20
 514:	eb 54       	subi	r30, 0x4B	; 75
 516:	fe 4f       	sbci	r31, 0xFE	; 254
 518:	11 82       	std	Z+1, r1	; 0x01
 51a:	10 82       	st	Z, r1
			AD_Counter[analog_index] = 0;
 51c:	f9 01       	movw	r30, r18
 51e:	e2 55       	subi	r30, 0x52	; 82
 520:	fe 4f       	sbci	r31, 0xFE	; 254
 522:	10 82       	st	Z, r1
	// Analog Inputs Configuration - modo de conversão e resolução e inicializa os buffers de várias leitura do ADC
	ADC__ConfigModes(HAL_ANALOG_MODE,HAL_CONVERSION_METHOD);
	AD_Mux_State = 	MUX_INIT;
	AD_Channel = POT_EXT;  // equivalente ao canal AD5 do arduino

	for(analog_index = 0; analog_index < NUM_OF_ANALOG_INPUT; analog_index++)
 524:	8f 5f       	subi	r24, 0xFF	; 255
 526:	86 30       	cpi	r24, 0x06	; 6
 528:	20 f3       	brcs	.-56     	; 0x4f2 <Hal__Initialize+0x76>
			AD_Accumulator[analog_index] = 0;
			AD_Counter[analog_index] = 0;
		}
	}
	
}
 52a:	cf 91       	pop	r28
 52c:	08 95       	ret

0000052e <Hal__SetLed>:
 *  output: Respective LED
 *  value: ON/OFF
 */
void Hal__SetLed(LED_OUTPUT_TYPE output,unsigned char value)
{
	Hal_Leds_Buffer[output] = LED_OFF;
 52e:	90 e0       	ldi	r25, 0x00	; 0
 530:	fc 01       	movw	r30, r24
 532:	eb 57       	subi	r30, 0x7B	; 123
 534:	fe 4f       	sbci	r31, 0xFE	; 254
 536:	21 e0       	ldi	r18, 0x01	; 1
 538:	20 83       	st	Z, r18
	if (value == ACENDE_LED)
 53a:	61 11       	cpse	r22, r1
 53c:	04 c0       	rjmp	.+8      	; 0x546 <Hal__SetLed+0x18>
		Hal_Leds_Buffer[output] = LED_ON;
 53e:	fc 01       	movw	r30, r24
 540:	eb 57       	subi	r30, 0x7B	; 123
 542:	fe 4f       	sbci	r31, 0xFE	; 254
 544:	10 82       	st	Z, r1
 546:	08 95       	ret

00000548 <Hal__SetAllLeds>:
 */
void Hal__SetAllLeds(unsigned char value)
{
	LED_OUTPUT_TYPE index;

	for(index = 0; index < NUM_OF_LEDS; index++)
 548:	90 e0       	ldi	r25, 0x00	; 0
 54a:	0e c0       	rjmp	.+28     	; 0x568 <Hal__SetAllLeds+0x20>
	{
		Hal_Leds_Buffer[index] = LED_OFF;
 54c:	29 2f       	mov	r18, r25
 54e:	30 e0       	ldi	r19, 0x00	; 0
 550:	f9 01       	movw	r30, r18
 552:	eb 57       	subi	r30, 0x7B	; 123
 554:	fe 4f       	sbci	r31, 0xFE	; 254
 556:	41 e0       	ldi	r20, 0x01	; 1
 558:	40 83       	st	Z, r20
		if (value == ACENDE_LED)
 55a:	81 11       	cpse	r24, r1
 55c:	04 c0       	rjmp	.+8      	; 0x566 <Hal__SetAllLeds+0x1e>
		Hal_Leds_Buffer[index] = LED_ON;
 55e:	f9 01       	movw	r30, r18
 560:	eb 57       	subi	r30, 0x7B	; 123
 562:	fe 4f       	sbci	r31, 0xFE	; 254
 564:	10 82       	st	Z, r1
 */
void Hal__SetAllLeds(unsigned char value)
{
	LED_OUTPUT_TYPE index;

	for(index = 0; index < NUM_OF_LEDS; index++)
 566:	9f 5f       	subi	r25, 0xFF	; 255
 568:	94 30       	cpi	r25, 0x04	; 4
 56a:	80 f3       	brcs	.-32     	; 0x54c <Hal__SetAllLeds+0x4>
	{
		Hal_Leds_Buffer[index] = LED_OFF;
		if (value == ACENDE_LED)
		Hal_Leds_Buffer[index] = LED_ON;
	}
}
 56c:	08 95       	ret

0000056e <Hal__ReadKey>:
 *  Use this function to read the status of a specific key
 *  key: desired key to be read
 *  return: TRUE if key is pressed otherwise FALSE
 */
unsigned char Hal__ReadKey(KEY_INPUT_TYPE key)
{
 56e:	28 2f       	mov	r18, r24
	if (key < NUM_OF_KEYS)
 570:	84 30       	cpi	r24, 0x04	; 4
 572:	80 f4       	brcc	.+32     	; 0x594 <Hal__ReadKey+0x26>
	{
		if (BIT_TEST(Hal_Keys_Buffer, key) > 0)
 574:	80 91 b4 01 	lds	r24, 0x01B4	; 0x8001b4 <Hal_Keys_Buffer>
 578:	90 e0       	ldi	r25, 0x00	; 0
 57a:	a0 e0       	ldi	r26, 0x00	; 0
 57c:	b0 e0       	ldi	r27, 0x00	; 0
 57e:	04 c0       	rjmp	.+8      	; 0x588 <Hal__ReadKey+0x1a>
 580:	b6 95       	lsr	r27
 582:	a7 95       	ror	r26
 584:	97 95       	ror	r25
 586:	87 95       	ror	r24
 588:	2a 95       	dec	r18
 58a:	d2 f7       	brpl	.-12     	; 0x580 <Hal__ReadKey+0x12>
 58c:	80 fd       	sbrc	r24, 0
 58e:	04 c0       	rjmp	.+8      	; 0x598 <Hal__ReadKey+0x2a>
		return (TRUE);
	}
	return (FALSE);
 590:	80 e0       	ldi	r24, 0x00	; 0
 592:	08 95       	ret
 594:	80 e0       	ldi	r24, 0x00	; 0
 596:	08 95       	ret
unsigned char Hal__ReadKey(KEY_INPUT_TYPE key)
{
	if (key < NUM_OF_KEYS)
	{
		if (BIT_TEST(Hal_Keys_Buffer, key) > 0)
		return (TRUE);
 598:	81 e0       	ldi	r24, 0x01	; 1
	}
	return (FALSE);
}
 59a:	08 95       	ret

0000059c <Hal__ReadAllKey>:
 *  Use this function to read the status of all keys
 *  *  return: retorno o ponteiro da estrutura com os vetores das chaves*/


unsigned char Hal__ReadAllKey(void)
{
 59c:	0f 93       	push	r16
 59e:	1f 93       	push	r17
 5a0:	cf 93       	push	r28
	KEY_INPUT_TYPE index;
	for(index = 0; index < NUM_OF_KEYS; index++)
 5a2:	c0 e0       	ldi	r28, 0x00	; 0
 5a4:	0c c0       	rjmp	.+24     	; 0x5be <Hal__ReadAllKey+0x22>
	{
		tab->key[index]=Hal__ReadKey(index);
 5a6:	0c 2f       	mov	r16, r28
 5a8:	10 e0       	ldi	r17, 0x00	; 0
 5aa:	8c 2f       	mov	r24, r28
 5ac:	0e 94 b7 02 	call	0x56e	; 0x56e <Hal__ReadKey>
 5b0:	f8 01       	movw	r30, r16
 5b2:	e7 57       	subi	r30, 0x77	; 119
 5b4:	fe 4f       	sbci	r31, 0xFE	; 254
 5b6:	80 83       	st	Z, r24
		
		if (tab->key[index] == TRUE){ // A chave x foi apertada
 5b8:	81 30       	cpi	r24, 0x01	; 1
 5ba:	29 f0       	breq	.+10     	; 0x5c6 <Hal__ReadAllKey+0x2a>


unsigned char Hal__ReadAllKey(void)
{
	KEY_INPUT_TYPE index;
	for(index = 0; index < NUM_OF_KEYS; index++)
 5bc:	cf 5f       	subi	r28, 0xFF	; 255
 5be:	c4 30       	cpi	r28, 0x04	; 4
 5c0:	90 f3       	brcs	.-28     	; 0x5a6 <Hal__ReadAllKey+0xa>
		
		if (tab->key[index] == TRUE){ // A chave x foi apertada
			return index;
		}
	}
	return NUM_OF_KEYS; // Nenhuma chave apertada
 5c2:	84 e0       	ldi	r24, 0x04	; 4
 5c4:	01 c0       	rjmp	.+2      	; 0x5c8 <Hal__ReadAllKey+0x2c>
	for(index = 0; index < NUM_OF_KEYS; index++)
	{
		tab->key[index]=Hal__ReadKey(index);
		
		if (tab->key[index] == TRUE){ // A chave x foi apertada
			return index;
 5c6:	8c 2f       	mov	r24, r28
		}
	}
	return NUM_OF_KEYS; // Nenhuma chave apertada
	
}
 5c8:	cf 91       	pop	r28
 5ca:	1f 91       	pop	r17
 5cc:	0f 91       	pop	r16
 5ce:	08 95       	ret

000005d0 <Hal__WriteValtoSegment>:



void Hal__WriteValtoSegment(const char* ptr_display_values){	
	SevenSeg_WriteValueToSegment(ptr_display_values);
 5d0:	0e 94 d6 03 	call	0x7ac	; 0x7ac <SevenSeg_WriteValueToSegment>
 5d4:	08 95       	ret

000005d6 <Hal_GetAnalogInput>:
 *  Use this function to read a value ADC in the selected channel
 *  
 */
unsigned short int Hal_GetAnalogInput(ANALOG_INPUT_TYPE input)
{
	if(input < NUM_OF_ANALOG_INPUT)
 5d6:	86 30       	cpi	r24, 0x06	; 6
 5d8:	48 f4       	brcc	.+18     	; 0x5ec <Hal_GetAnalogInput+0x16>
		return Hal_Analog_Inputs[input];  // retorna o valor no buffer HAL_AnalogInputs do canal solicitado
 5da:	e8 2f       	mov	r30, r24
 5dc:	f0 e0       	ldi	r31, 0x00	; 0
 5de:	ee 0f       	add	r30, r30
 5e0:	ff 1f       	adc	r31, r31
 5e2:	ef 55       	subi	r30, 0x5F	; 95
 5e4:	fe 4f       	sbci	r31, 0xFE	; 254
 5e6:	80 81       	ld	r24, Z
 5e8:	91 81       	ldd	r25, Z+1	; 0x01
 5ea:	08 95       	ret
}
 5ec:	08 95       	ret

000005ee <LEDsUpdate>:

/**
 *  This local function update the LEDs status
 */
void LEDsUpdate(void)
{
 5ee:	cf 93       	push	r28
	unsigned char index;
	unsigned char value;
	
	//LEDs Update
	for(index = 0; index < NUM_OF_LEDS; index++){
 5f0:	c0 e0       	ldi	r28, 0x00	; 0
 5f2:	1b c0       	rjmp	.+54     	; 0x62a <LEDsUpdate+0x3c>
		if(Leds_Enable_Table[index] == ENABLED){
 5f4:	8c 2f       	mov	r24, r28
 5f6:	90 e0       	ldi	r25, 0x00	; 0
 5f8:	fc 01       	movw	r30, r24
 5fa:	ee 5a       	subi	r30, 0xAE	; 174
 5fc:	fe 4f       	sbci	r31, 0xFE	; 254
 5fe:	20 81       	ld	r18, Z
 600:	21 30       	cpi	r18, 0x01	; 1
 602:	91 f4       	brne	.+36     	; 0x628 <LEDsUpdate+0x3a>
			value = LED_ON;
			if(Hal_Leds_Buffer[index] > 0){  
 604:	fc 01       	movw	r30, r24
 606:	eb 57       	subi	r30, 0x7B	; 123
 608:	fe 4f       	sbci	r31, 0xFE	; 254
 60a:	20 81       	ld	r18, Z
 60c:	21 11       	cpse	r18, r1
 60e:	02 c0       	rjmp	.+4      	; 0x614 <LEDsUpdate+0x26>
	unsigned char value;
	
	//LEDs Update
	for(index = 0; index < NUM_OF_LEDS; index++){
		if(Leds_Enable_Table[index] == ENABLED){
			value = LED_ON;
 610:	40 e0       	ldi	r20, 0x00	; 0
 612:	01 c0       	rjmp	.+2      	; 0x616 <LEDsUpdate+0x28>
			if(Hal_Leds_Buffer[index] > 0){  
					value = LED_OFF;
 614:	41 e0       	ldi	r20, 0x01	; 1
			}
			GPIO_PIN_WRITE(LED_GPIO[index].port, LED_GPIO[index].pin, value);
 616:	88 0f       	add	r24, r24
 618:	99 1f       	adc	r25, r25
 61a:	fc 01       	movw	r30, r24
 61c:	e2 5f       	subi	r30, 0xF2	; 242
 61e:	fe 4f       	sbci	r31, 0xFE	; 254
 620:	61 81       	ldd	r22, Z+1	; 0x01
 622:	80 81       	ld	r24, Z
 624:	0e 94 09 02 	call	0x412	; 0x412 <GPIO_PIN_WRITE>
{
	unsigned char index;
	unsigned char value;
	
	//LEDs Update
	for(index = 0; index < NUM_OF_LEDS; index++){
 628:	cf 5f       	subi	r28, 0xFF	; 255
 62a:	c4 30       	cpi	r28, 0x04	; 4
 62c:	18 f3       	brcs	.-58     	; 0x5f4 <LEDsUpdate+0x6>
					value = LED_OFF;
			}
			GPIO_PIN_WRITE(LED_GPIO[index].port, LED_GPIO[index].pin, value);
		}
	}
}
 62e:	cf 91       	pop	r28
 630:	08 95       	ret

00000632 <KeysRead>:
/**
 *  This local function reads the keys input and update the Hal_Keys_Buffer
 */

void KeysRead(void)
{
 632:	0f 93       	push	r16
 634:	1f 93       	push	r17
 636:	cf 93       	push	r28
	//Keys read
	KEY_INPUT_TYPE key_index;
	unsigned char value;
	
	for(key_index = KEY_0; key_index < NUM_OF_KEYS; key_index++){
 638:	c0 e0       	ldi	r28, 0x00	; 0
 63a:	38 c0       	rjmp	.+112    	; 0x6ac <KeysRead+0x7a>
		if(Keys_Enable_Table[key_index] == ENABLED){
 63c:	0c 2f       	mov	r16, r28
 63e:	10 e0       	ldi	r17, 0x00	; 0
 640:	f8 01       	movw	r30, r16
 642:	e2 5b       	subi	r30, 0xB2	; 178
 644:	fe 4f       	sbci	r31, 0xFE	; 254
 646:	80 81       	ld	r24, Z
 648:	81 30       	cpi	r24, 0x01	; 1
 64a:	79 f5       	brne	.+94     	; 0x6aa <KeysRead+0x78>
			value = GPIO_PIN_READ(KEYS_GPIO[key_index].port, KEYS_GPIO[key_index].pin);
 64c:	f8 01       	movw	r30, r16
 64e:	ee 0f       	add	r30, r30
 650:	ff 1f       	adc	r31, r31
 652:	ea 5f       	subi	r30, 0xFA	; 250
 654:	fe 4f       	sbci	r31, 0xFE	; 254
 656:	61 81       	ldd	r22, Z+1	; 0x01
 658:	80 81       	ld	r24, Z
 65a:	0e 94 2b 02 	call	0x456	; 0x456 <GPIO_PIN_READ>
			if(value == KEY_PRESSED){
 65e:	81 11       	cpse	r24, r1
 660:	12 c0       	rjmp	.+36     	; 0x686 <KeysRead+0x54>
				BIT_SET(Hal_Keys_Buffer,key_index);
 662:	81 e0       	ldi	r24, 0x01	; 1
 664:	90 e0       	ldi	r25, 0x00	; 0
 666:	a0 e0       	ldi	r26, 0x00	; 0
 668:	b0 e0       	ldi	r27, 0x00	; 0
 66a:	0c 2e       	mov	r0, r28
 66c:	04 c0       	rjmp	.+8      	; 0x676 <KeysRead+0x44>
 66e:	88 0f       	add	r24, r24
 670:	99 1f       	adc	r25, r25
 672:	aa 1f       	adc	r26, r26
 674:	bb 1f       	adc	r27, r27
 676:	0a 94       	dec	r0
 678:	d2 f7       	brpl	.-12     	; 0x66e <KeysRead+0x3c>
 67a:	20 91 b4 01 	lds	r18, 0x01B4	; 0x8001b4 <Hal_Keys_Buffer>
 67e:	82 2b       	or	r24, r18
 680:	80 93 b4 01 	sts	0x01B4, r24	; 0x8001b4 <Hal_Keys_Buffer>
 684:	12 c0       	rjmp	.+36     	; 0x6aa <KeysRead+0x78>
			}
			else{
				BIT_CLR(Hal_Keys_Buffer,key_index);
 686:	81 e0       	ldi	r24, 0x01	; 1
 688:	90 e0       	ldi	r25, 0x00	; 0
 68a:	a0 e0       	ldi	r26, 0x00	; 0
 68c:	b0 e0       	ldi	r27, 0x00	; 0
 68e:	0c 2e       	mov	r0, r28
 690:	04 c0       	rjmp	.+8      	; 0x69a <KeysRead+0x68>
 692:	88 0f       	add	r24, r24
 694:	99 1f       	adc	r25, r25
 696:	aa 1f       	adc	r26, r26
 698:	bb 1f       	adc	r27, r27
 69a:	0a 94       	dec	r0
 69c:	d2 f7       	brpl	.-12     	; 0x692 <KeysRead+0x60>
 69e:	80 95       	com	r24
 6a0:	90 91 b4 01 	lds	r25, 0x01B4	; 0x8001b4 <Hal_Keys_Buffer>
 6a4:	89 23       	and	r24, r25
 6a6:	80 93 b4 01 	sts	0x01B4, r24	; 0x8001b4 <Hal_Keys_Buffer>
{
	//Keys read
	KEY_INPUT_TYPE key_index;
	unsigned char value;
	
	for(key_index = KEY_0; key_index < NUM_OF_KEYS; key_index++){
 6aa:	cf 5f       	subi	r28, 0xFF	; 255
 6ac:	c4 30       	cpi	r28, 0x04	; 4
 6ae:	30 f2       	brcs	.-116    	; 0x63c <KeysRead+0xa>
			}
		}
	}
	

}
 6b0:	cf 91       	pop	r28
 6b2:	1f 91       	pop	r17
 6b4:	0f 91       	pop	r16
 6b6:	08 95       	ret

000006b8 <Hal__FastHandler>:
 *  This function shall run in background in the main loop 
 *  Call rate: 1ms, 5ms, 10ms, ...PARA ADC
 */
void Hal__FastHandler(void)
{
	LEDsUpdate();   // update the LEDs status
 6b8:	0e 94 f7 02 	call	0x5ee	; 0x5ee <LEDsUpdate>
	KeysRead();     // reads the keys and update the Hal_Keys_Buffer
 6bc:	0e 94 19 03 	call	0x632	; 0x632 <KeysRead>
 6c0:	08 95       	ret

000006c2 <ADProcess>:
 *  This local function reads the analog input and update the buffer Hal_Analog_inputs[]
    ROTINA ONDE SÃO FEITAS AS VÁRIAS LEITURAS DE AMOSTRAGEM (NUM_AD_SAMPLES) E DEPOIS TIRADO A MÉDIA DOS  VALORES
****/

void ADProcess(void)
{
 6c2:	cf 93       	push	r28
 6c4:	df 93       	push	r29
	switch (AD_Mux_State)
 6c6:	80 91 ad 01 	lds	r24, 0x01AD	; 0x8001ad <AD_Mux_State>
 6ca:	81 30       	cpi	r24, 0x01	; 1
 6cc:	19 f0       	breq	.+6      	; 0x6d4 <ADProcess+0x12>
 6ce:	83 30       	cpi	r24, 0x03	; 3
 6d0:	31 f0       	breq	.+12     	; 0x6de <ADProcess+0x1c>
 6d2:	5c c0       	rjmp	.+184    	; 0x78c <ADProcess+0xca>
	  {
	  case MUX_INIT:
		break;
	  case MUX_AD_CONFIG:
		ADC__ConfigModes(MODE_10BITS,AD_SINGLE_CONVERSION);
 6d4:	60 e0       	ldi	r22, 0x00	; 0
 6d6:	81 e0       	ldi	r24, 0x01	; 1
 6d8:	0e 94 a1 01 	call	0x342	; 0x342 <ADC__ConfigModes>
		break;
 6dc:	57 c0       	rjmp	.+174    	; 0x78c <ADProcess+0xca>
	  case MUX_DUMMY_STATE_1: //=> This state is placed in order to assure the raising time for ADC reading
		break;
	  case MUX_AD_READ:
		  if(AD_Enable_Table[AD_Channel] == ENABLED)
 6de:	c0 91 84 01 	lds	r28, 0x0184	; 0x800184 <AD_Channel>
 6e2:	d0 e0       	ldi	r29, 0x00	; 0
 6e4:	fe 01       	movw	r30, r28
 6e6:	e8 5b       	subi	r30, 0xB8	; 184
 6e8:	fe 4f       	sbci	r31, 0xFE	; 254
 6ea:	80 81       	ld	r24, Z
 6ec:	81 30       	cpi	r24, 0x01	; 1
 6ee:	09 f0       	breq	.+2      	; 0x6f2 <ADProcess+0x30>
 6f0:	44 c0       	rjmp	.+136    	; 0x77a <ADProcess+0xb8>
			 {
			 if(AD_Counter[AD_Channel] < NUM_AD_SAMPLES)
 6f2:	fe 01       	movw	r30, r28
 6f4:	e2 55       	subi	r30, 0x52	; 82
 6f6:	fe 4f       	sbci	r31, 0xFE	; 254
 6f8:	80 81       	ld	r24, Z
 6fa:	88 30       	cpi	r24, 0x08	; 8
 6fc:	30 f5       	brcc	.+76     	; 0x74a <ADProcess+0x88>
				 {
				 AD_Sample[AD_Channel] = ADC__GetValue(AD_Channel_Table[AD_Channel]);
 6fe:	fe 01       	movw	r30, r28
 700:	ee 5b       	subi	r30, 0xBE	; 190
 702:	fe 4f       	sbci	r31, 0xFE	; 254
 704:	80 81       	ld	r24, Z
 706:	0e 94 cd 01 	call	0x39a	; 0x39a <ADC__GetValue>
 70a:	cc 0f       	add	r28, r28
 70c:	dd 1f       	adc	r29, r29
 70e:	cb 56       	subi	r28, 0x6B	; 107
 710:	de 4f       	sbci	r29, 0xFE	; 254
 712:	99 83       	std	Y+1, r25	; 0x01
 714:	88 83       	st	Y, r24
				 AD_Accumulator[AD_Channel] += AD_Sample[AD_Channel];
 716:	e0 91 84 01 	lds	r30, 0x0184	; 0x800184 <AD_Channel>
 71a:	f0 e0       	ldi	r31, 0x00	; 0
 71c:	df 01       	movw	r26, r30
 71e:	aa 0f       	add	r26, r26
 720:	bb 1f       	adc	r27, r27
 722:	ed 01       	movw	r28, r26
 724:	cb 56       	subi	r28, 0x6B	; 107
 726:	de 4f       	sbci	r29, 0xFE	; 254
 728:	88 81       	ld	r24, Y
 72a:	99 81       	ldd	r25, Y+1	; 0x01
 72c:	ab 54       	subi	r26, 0x4B	; 75
 72e:	be 4f       	sbci	r27, 0xFE	; 254
 730:	2d 91       	ld	r18, X+
 732:	3c 91       	ld	r19, X
 734:	11 97       	sbiw	r26, 0x01	; 1
 736:	82 0f       	add	r24, r18
 738:	93 1f       	adc	r25, r19
 73a:	8d 93       	st	X+, r24
 73c:	9c 93       	st	X, r25
				 AD_Counter[AD_Channel]++;
 73e:	e2 55       	subi	r30, 0x52	; 82
 740:	fe 4f       	sbci	r31, 0xFE	; 254
 742:	80 81       	ld	r24, Z
 744:	8f 5f       	subi	r24, 0xFF	; 255
 746:	80 83       	st	Z, r24
 748:	18 c0       	rjmp	.+48     	; 0x77a <ADProcess+0xb8>
				 }
			 else
				{  // O Buffer Hal_Analog_Inputs[] é a média do valor de ADC e éAQUI atualizado!
				Hal_Analog_Inputs[AD_Channel] = (unsigned short int)(AD_Accumulator[AD_Channel]/NUM_AD_SAMPLES);
 74a:	ce 01       	movw	r24, r28
 74c:	88 0f       	add	r24, r24
 74e:	99 1f       	adc	r25, r25
 750:	fc 01       	movw	r30, r24
 752:	eb 54       	subi	r30, 0x4B	; 75
 754:	fe 4f       	sbci	r31, 0xFE	; 254
 756:	20 81       	ld	r18, Z
 758:	31 81       	ldd	r19, Z+1	; 0x01
 75a:	36 95       	lsr	r19
 75c:	27 95       	ror	r18
 75e:	36 95       	lsr	r19
 760:	27 95       	ror	r18
 762:	36 95       	lsr	r19
 764:	27 95       	ror	r18
 766:	dc 01       	movw	r26, r24
 768:	af 55       	subi	r26, 0x5F	; 95
 76a:	be 4f       	sbci	r27, 0xFE	; 254
 76c:	2d 93       	st	X+, r18
 76e:	3c 93       	st	X, r19
				AD_Accumulator[AD_Channel] = 0;
 770:	11 82       	std	Z+1, r1	; 0x01
 772:	10 82       	st	Z, r1
				AD_Counter[AD_Channel] = 0;
 774:	c2 55       	subi	r28, 0x52	; 82
 776:	de 4f       	sbci	r29, 0xFE	; 254
 778:	18 82       	st	Y, r1
				}
			  } 
		   AD_Channel++;
 77a:	80 91 84 01 	lds	r24, 0x0184	; 0x800184 <AD_Channel>
 77e:	8f 5f       	subi	r24, 0xFF	; 255
 780:	80 93 84 01 	sts	0x0184, r24	; 0x800184 <AD_Channel>
		   if(AD_Channel >= NUM_OF_ANALOG_INPUT)
 784:	86 30       	cpi	r24, 0x06	; 6
 786:	10 f0       	brcs	.+4      	; 0x78c <ADProcess+0xca>
			 {
			 AD_Channel = 0;
 788:	10 92 84 01 	sts	0x0184, r1	; 0x800184 <AD_Channel>
		   break;
	  default:
		   break;
	  }

	AD_Mux_State++;                                // Ticking the state machine.
 78c:	80 91 ad 01 	lds	r24, 0x01AD	; 0x8001ad <AD_Mux_State>
 790:	8f 5f       	subi	r24, 0xFF	; 255
 792:	80 93 ad 01 	sts	0x01AD, r24	; 0x8001ad <AD_Mux_State>

	if (AD_Mux_State >= NUM_MUX_STEPS){
 796:	84 30       	cpi	r24, 0x04	; 4
 798:	18 f0       	brcs	.+6      	; 0x7a0 <ADProcess+0xde>
	  AD_Mux_State = MUX_AD_CONFIG;
 79a:	81 e0       	ldi	r24, 0x01	; 1
 79c:	80 93 ad 01 	sts	0x01AD, r24	; 0x8001ad <AD_Mux_State>
    }
 7a0:	df 91       	pop	r29
 7a2:	cf 91       	pop	r28
 7a4:	08 95       	ret

000007a6 <Hal__BackgroundHandler>:
 *  Call rate: 1ms, 5ms, 10ms, ...PARA ADC
 */

void Hal__BackgroundHandler(void)
{
	ADProcess();
 7a6:	0e 94 61 03 	call	0x6c2	; 0x6c2 <ADProcess>
 7aa:	08 95       	ret

000007ac <SevenSeg_WriteValueToSegment>:
 7ac:	0f 93       	push	r16
 7ae:	1f 93       	push	r17
 7b0:	cf 93       	push	r28
 7b2:	df 93       	push	r29
 7b4:	ec 01       	movw	r28, r24
 7b6:	00 e0       	ldi	r16, 0x00	; 0
 7b8:	66 c0       	rjmp	.+204    	; 0x886 <__DATA_REGION_LENGTH__+0x86>
 7ba:	40 e0       	ldi	r20, 0x00	; 0
 7bc:	64 e0       	ldi	r22, 0x04	; 4
 7be:	82 e0       	ldi	r24, 0x02	; 2
 7c0:	0e 94 09 02 	call	0x412	; 0x412 <GPIO_PIN_WRITE>
 7c4:	10 e0       	ldi	r17, 0x00	; 0
 7c6:	26 c0       	rjmp	.+76     	; 0x814 <__DATA_REGION_LENGTH__+0x14>
 7c8:	fe 01       	movw	r30, r28
 7ca:	e0 0f       	add	r30, r16
 7cc:	f1 1d       	adc	r31, r1
 7ce:	80 81       	ld	r24, Z
 7d0:	27 e0       	ldi	r18, 0x07	; 7
 7d2:	30 e0       	ldi	r19, 0x00	; 0
 7d4:	21 1b       	sub	r18, r17
 7d6:	31 09       	sbc	r19, r1
 7d8:	90 e0       	ldi	r25, 0x00	; 0
 7da:	02 c0       	rjmp	.+4      	; 0x7e0 <SevenSeg_WriteValueToSegment+0x34>
 7dc:	95 95       	asr	r25
 7de:	87 95       	ror	r24
 7e0:	2a 95       	dec	r18
 7e2:	e2 f7       	brpl	.-8      	; 0x7dc <SevenSeg_WriteValueToSegment+0x30>
 7e4:	80 ff       	sbrs	r24, 0
 7e6:	06 c0       	rjmp	.+12     	; 0x7f4 <SevenSeg_WriteValueToSegment+0x48>
 7e8:	41 e0       	ldi	r20, 0x01	; 1
 7ea:	60 e0       	ldi	r22, 0x00	; 0
 7ec:	80 e0       	ldi	r24, 0x00	; 0
 7ee:	0e 94 09 02 	call	0x412	; 0x412 <GPIO_PIN_WRITE>
 7f2:	05 c0       	rjmp	.+10     	; 0x7fe <SevenSeg_WriteValueToSegment+0x52>
 7f4:	40 e0       	ldi	r20, 0x00	; 0
 7f6:	60 e0       	ldi	r22, 0x00	; 0
 7f8:	80 e0       	ldi	r24, 0x00	; 0
 7fa:	0e 94 09 02 	call	0x412	; 0x412 <GPIO_PIN_WRITE>
 7fe:	41 e0       	ldi	r20, 0x01	; 1
 800:	67 e0       	ldi	r22, 0x07	; 7
 802:	82 e0       	ldi	r24, 0x02	; 2
 804:	0e 94 09 02 	call	0x412	; 0x412 <GPIO_PIN_WRITE>
 808:	40 e0       	ldi	r20, 0x00	; 0
 80a:	67 e0       	ldi	r22, 0x07	; 7
 80c:	82 e0       	ldi	r24, 0x02	; 2
 80e:	0e 94 09 02 	call	0x412	; 0x412 <GPIO_PIN_WRITE>
 812:	1f 5f       	subi	r17, 0xFF	; 255
 814:	18 30       	cpi	r17, 0x08	; 8
 816:	c0 f2       	brcs	.-80     	; 0x7c8 <SevenSeg_WriteValueToSegment+0x1c>
 818:	10 e0       	ldi	r17, 0x00	; 0
 81a:	27 c0       	rjmp	.+78     	; 0x86a <__DATA_REGION_LENGTH__+0x6a>
 81c:	e0 2f       	mov	r30, r16
 81e:	f0 e0       	ldi	r31, 0x00	; 0
 820:	ea 5a       	subi	r30, 0xAA	; 170
 822:	fe 4f       	sbci	r31, 0xFE	; 254
 824:	80 81       	ld	r24, Z
 826:	27 e0       	ldi	r18, 0x07	; 7
 828:	30 e0       	ldi	r19, 0x00	; 0
 82a:	21 1b       	sub	r18, r17
 82c:	31 09       	sbc	r19, r1
 82e:	90 e0       	ldi	r25, 0x00	; 0
 830:	02 c0       	rjmp	.+4      	; 0x836 <__DATA_REGION_LENGTH__+0x36>
 832:	95 95       	asr	r25
 834:	87 95       	ror	r24
 836:	2a 95       	dec	r18
 838:	e2 f7       	brpl	.-8      	; 0x832 <__DATA_REGION_LENGTH__+0x32>
 83a:	80 ff       	sbrs	r24, 0
 83c:	06 c0       	rjmp	.+12     	; 0x84a <__DATA_REGION_LENGTH__+0x4a>
 83e:	41 e0       	ldi	r20, 0x01	; 1
 840:	60 e0       	ldi	r22, 0x00	; 0
 842:	80 e0       	ldi	r24, 0x00	; 0
 844:	0e 94 09 02 	call	0x412	; 0x412 <GPIO_PIN_WRITE>
 848:	05 c0       	rjmp	.+10     	; 0x854 <__DATA_REGION_LENGTH__+0x54>
 84a:	40 e0       	ldi	r20, 0x00	; 0
 84c:	60 e0       	ldi	r22, 0x00	; 0
 84e:	80 e0       	ldi	r24, 0x00	; 0
 850:	0e 94 09 02 	call	0x412	; 0x412 <GPIO_PIN_WRITE>
 854:	41 e0       	ldi	r20, 0x01	; 1
 856:	67 e0       	ldi	r22, 0x07	; 7
 858:	82 e0       	ldi	r24, 0x02	; 2
 85a:	0e 94 09 02 	call	0x412	; 0x412 <GPIO_PIN_WRITE>
 85e:	40 e0       	ldi	r20, 0x00	; 0
 860:	67 e0       	ldi	r22, 0x07	; 7
 862:	82 e0       	ldi	r24, 0x02	; 2
 864:	0e 94 09 02 	call	0x412	; 0x412 <GPIO_PIN_WRITE>
 868:	1f 5f       	subi	r17, 0xFF	; 255
 86a:	18 30       	cpi	r17, 0x08	; 8
 86c:	b8 f2       	brcs	.-82     	; 0x81c <__DATA_REGION_LENGTH__+0x1c>
	#else
		//round up by default
		__ticks_dc = (uint32_t)(ceil(fabs(__tmp)));
	#endif

	__builtin_avr_delay_cycles(__ticks_dc);
 86e:	8d ee       	ldi	r24, 0xED	; 237
 870:	92 e0       	ldi	r25, 0x02	; 2
 872:	01 97       	sbiw	r24, 0x01	; 1
 874:	f1 f7       	brne	.-4      	; 0x872 <__DATA_REGION_LENGTH__+0x72>
 876:	00 c0       	rjmp	.+0      	; 0x878 <__DATA_REGION_LENGTH__+0x78>
 878:	00 00       	nop
 87a:	41 e0       	ldi	r20, 0x01	; 1
 87c:	64 e0       	ldi	r22, 0x04	; 4
 87e:	82 e0       	ldi	r24, 0x02	; 2
 880:	0e 94 09 02 	call	0x412	; 0x412 <GPIO_PIN_WRITE>
 884:	0f 5f       	subi	r16, 0xFF	; 255
 886:	04 30       	cpi	r16, 0x04	; 4
 888:	08 f4       	brcc	.+2      	; 0x88c <__DATA_REGION_LENGTH__+0x8c>
 88a:	97 cf       	rjmp	.-210    	; 0x7ba <SevenSeg_WriteValueToSegment+0xe>
 88c:	df 91       	pop	r29
 88e:	cf 91       	pop	r28
 890:	1f 91       	pop	r17
 892:	0f 91       	pop	r16
 894:	08 95       	ret

00000896 <Display__Initialize>:
/**
 *  Inicializa vari?veis referente ao estado inicial do forno e das chaves
 */
void Display__Initialize(void)
	{
	Oven_Display_State = OVEN_INIT;
 896:	84 e0       	ldi	r24, 0x04	; 4
 898:	80 93 c2 01 	sts	0x01C2, r24	; 0x8001c2 <Oven_Display_State>
	Display_Keys_Map = KEY_OFF_EVENT;
 89c:	10 92 c1 01 	sts	0x01C1, r1	; 0x8001c1 <Display_Keys_Map>
 8a0:	08 95       	ret

000008a2 <Display__SetState>:
 *  A funcao atualiza a variavel global:
 *  Oven_Display_State que indica o estado do forno  
 */
void Display__SetState(OVEN_DISPLAY_STATE_TYPE state)
{
	if(state < NUM_OF_OVEN_STATES)
 8a2:	86 30       	cpi	r24, 0x06	; 6
 8a4:	10 f4       	brcc	.+4      	; 0x8aa <Display__SetState+0x8>
	{
		Oven_Display_State = state;
 8a6:	80 93 c2 01 	sts	0x01C2, r24	; 0x8001c2 <Oven_Display_State>
 8aa:	08 95       	ret

000008ac <UpdateDisplayLeds>:
 */
void UpdateDisplayLeds(void)
{
	
		
	switch(Oven_Display_State)
 8ac:	80 91 c2 01 	lds	r24, 0x01C2	; 0x8001c2 <Oven_Display_State>
 8b0:	82 30       	cpi	r24, 0x02	; 2
 8b2:	01 f1       	breq	.+64     	; 0x8f4 <UpdateDisplayLeds+0x48>
 8b4:	28 f4       	brcc	.+10     	; 0x8c0 <UpdateDisplayLeds+0x14>
 8b6:	88 23       	and	r24, r24
 8b8:	41 f0       	breq	.+16     	; 0x8ca <UpdateDisplayLeds+0x1e>
 8ba:	81 30       	cpi	r24, 0x01	; 1
 8bc:	71 f0       	breq	.+28     	; 0x8da <UpdateDisplayLeds+0x2e>
 8be:	08 95       	ret
 8c0:	83 30       	cpi	r24, 0x03	; 3
 8c2:	29 f1       	breq	.+74     	; 0x90e <__stack+0xf>
 8c4:	84 30       	cpi	r24, 0x04	; 4
 8c6:	29 f0       	breq	.+10     	; 0x8d2 <UpdateDisplayLeds+0x26>
 8c8:	08 95       	ret
	{
		case OVEN_OFF:
		{
			Hal__SetAllLeds(APAGA_LED);
 8ca:	81 e0       	ldi	r24, 0x01	; 1
 8cc:	0e 94 a4 02 	call	0x548	; 0x548 <Hal__SetAllLeds>
			break;
 8d0:	08 95       	ret
		}
		case OVEN_INIT:
		{
			Hal__SetAllLeds(APAGA_LED);
 8d2:	81 e0       	ldi	r24, 0x01	; 1
 8d4:	0e 94 a4 02 	call	0x548	; 0x548 <Hal__SetAllLeds>
			break;
 8d8:	08 95       	ret
		
		break;

		case OVEN_MIN:
		{
			Hal__SetLed(LED_0, ACENDE_LED);
 8da:	60 e0       	ldi	r22, 0x00	; 0
 8dc:	80 e0       	ldi	r24, 0x00	; 0
 8de:	0e 94 97 02 	call	0x52e	; 0x52e <Hal__SetLed>
			Hal__SetLed(LED_1, APAGA_LED);
 8e2:	61 e0       	ldi	r22, 0x01	; 1
 8e4:	81 e0       	ldi	r24, 0x01	; 1
 8e6:	0e 94 97 02 	call	0x52e	; 0x52e <Hal__SetLed>
			Hal__SetLed(LED_2, APAGA_LED);
 8ea:	61 e0       	ldi	r22, 0x01	; 1
 8ec:	82 e0       	ldi	r24, 0x02	; 2
 8ee:	0e 94 97 02 	call	0x52e	; 0x52e <Hal__SetLed>
		
			
			break;
 8f2:	08 95       	ret
		}
		case OVEN_MED:
		{
			Hal__SetLed(LED_0, ACENDE_LED);
 8f4:	60 e0       	ldi	r22, 0x00	; 0
 8f6:	80 e0       	ldi	r24, 0x00	; 0
 8f8:	0e 94 97 02 	call	0x52e	; 0x52e <Hal__SetLed>
			Hal__SetLed(LED_1, ACENDE_LED);
 8fc:	60 e0       	ldi	r22, 0x00	; 0
 8fe:	81 e0       	ldi	r24, 0x01	; 1
 900:	0e 94 97 02 	call	0x52e	; 0x52e <Hal__SetLed>
			Hal__SetLed(LED_2, APAGA_LED);
 904:	61 e0       	ldi	r22, 0x01	; 1
 906:	82 e0       	ldi	r24, 0x02	; 2
 908:	0e 94 97 02 	call	0x52e	; 0x52e <Hal__SetLed>
		
			
			break;
 90c:	08 95       	ret
		}
		case OVEN_MAX:
		{
			Hal__SetLed(LED_0, ACENDE_LED);
 90e:	60 e0       	ldi	r22, 0x00	; 0
 910:	80 e0       	ldi	r24, 0x00	; 0
 912:	0e 94 97 02 	call	0x52e	; 0x52e <Hal__SetLed>
			Hal__SetLed(LED_1, ACENDE_LED);
 916:	60 e0       	ldi	r22, 0x00	; 0
 918:	81 e0       	ldi	r24, 0x01	; 1
 91a:	0e 94 97 02 	call	0x52e	; 0x52e <Hal__SetLed>
			Hal__SetLed(LED_2, ACENDE_LED);
 91e:	60 e0       	ldi	r22, 0x00	; 0
 920:	82 e0       	ldi	r24, 0x02	; 2
 922:	0e 94 97 02 	call	0x52e	; 0x52e <Hal__SetLed>
 926:	08 95       	ret

00000928 <ReadDisplayKeys>:
 *  Atualiza a variavel global (Display_Keys_Map) das chaves
 *  chamando Hal_ReadKey()
 */
void ReadDisplayKeys(void)
{	
	unsigned char key_press=Hal__ReadAllKey(); // Lê todas as chaves
 928:	0e 94 ce 02 	call	0x59c	; 0x59c <Hal__ReadAllKey>
	
	switch(key_press){
 92c:	81 30       	cpi	r24, 0x01	; 1
 92e:	51 f0       	breq	.+20     	; 0x944 <ReadDisplayKeys+0x1c>
 930:	28 f0       	brcs	.+10     	; 0x93c <ReadDisplayKeys+0x14>
 932:	82 30       	cpi	r24, 0x02	; 2
 934:	59 f0       	breq	.+22     	; 0x94c <ReadDisplayKeys+0x24>
 936:	83 30       	cpi	r24, 0x03	; 3
 938:	69 f0       	breq	.+26     	; 0x954 <ReadDisplayKeys+0x2c>
 93a:	08 95       	ret
		case KEY_0:
			Display_Keys_Map= KEY_MIN_EVENT;
 93c:	81 e0       	ldi	r24, 0x01	; 1
 93e:	80 93 c1 01 	sts	0x01C1, r24	; 0x8001c1 <Display_Keys_Map>
			break;
 942:	08 95       	ret
		case KEY_1:
			Display_Keys_Map= KEY_MED_EVENT;
 944:	82 e0       	ldi	r24, 0x02	; 2
 946:	80 93 c1 01 	sts	0x01C1, r24	; 0x8001c1 <Display_Keys_Map>
			break;
 94a:	08 95       	ret
		case KEY_2:
			Display_Keys_Map= KEY_MAX_EVENT;
 94c:	83 e0       	ldi	r24, 0x03	; 3
 94e:	80 93 c1 01 	sts	0x01C1, r24	; 0x8001c1 <Display_Keys_Map>
			break;
 952:	08 95       	ret
		case KEY_3:
			Display_Keys_Map= KEY_OFF_EVENT;
 954:	10 92 c1 01 	sts	0x01C1, r1	; 0x8001c1 <Display_Keys_Map>
 958:	08 95       	ret

0000095a <Display__GetEvent>:


KEY_EVENT_TYPE Display__GetEvent(void)
{
	KEY_EVENT_TYPE event;
	ReadDisplayKeys();    // L? as chaves e coloca valor na vari?vel global Display_Keys_Map
 95a:	0e 94 94 04 	call	0x928	; 0x928 <ReadDisplayKeys>
	event = Display_Keys_Map;  //atribui a event o global atualizada em ReadDisplayKeys()
	return (event);
}
 95e:	80 91 c1 01 	lds	r24, 0x01C1	; 0x8001c1 <Display_Keys_Map>
 962:	08 95       	ret

00000964 <UpdateDisplaySevenSeg>:


void UpdateDisplaySevenSeg(void)
{
	const char* ptr_display_values = &ZERADO_DIGITO[0]; // Inicializa o ponteiro 
	switch(Oven_Display_State)
 964:	80 91 c2 01 	lds	r24, 0x01C2	; 0x8001c2 <Oven_Display_State>
 968:	82 30       	cpi	r24, 0x02	; 2
 96a:	39 f0       	breq	.+14     	; 0x97a <UpdateDisplaySevenSeg+0x16>
 96c:	83 30       	cpi	r24, 0x03	; 3
 96e:	41 f0       	breq	.+16     	; 0x980 <UpdateDisplaySevenSeg+0x1c>
 970:	81 30       	cpi	r24, 0x01	; 1
 972:	49 f0       	breq	.+18     	; 0x986 <UpdateDisplaySevenSeg+0x22>



void UpdateDisplaySevenSeg(void)
{
	const char* ptr_display_values = &ZERADO_DIGITO[0]; // Inicializa o ponteiro 
 974:	86 e6       	ldi	r24, 0x66	; 102
 976:	91 e0       	ldi	r25, 0x01	; 1
 978:	08 c0       	rjmp	.+16     	; 0x98a <UpdateDisplaySevenSeg+0x26>
		case OVEN_MIN:
			ptr_display_values = &MINIMO_DIGITO[0];
			break;
		case OVEN_MED:
			{
			ptr_display_values = &MEDIO_DIGITO[0];
 97a:	8e e5       	ldi	r24, 0x5E	; 94
 97c:	91 e0       	ldi	r25, 0x01	; 1
			break;
 97e:	05 c0       	rjmp	.+10     	; 0x98a <UpdateDisplaySevenSeg+0x26>
			}
		case OVEN_MAX:
			{
			ptr_display_values = &MAXIMO_DIGITO[0];
 980:	8a e5       	ldi	r24, 0x5A	; 90
 982:	91 e0       	ldi	r25, 0x01	; 1
			break;
 984:	02 c0       	rjmp	.+4      	; 0x98a <UpdateDisplaySevenSeg+0x26>
			break;
		case OVEN_INIT:
		case OVEN_TIMEOUT:
			break;
		case OVEN_MIN:
			ptr_display_values = &MINIMO_DIGITO[0];
 986:	82 e6       	ldi	r24, 0x62	; 98
 988:	91 e0       	ldi	r25, 0x01	; 1
		default:
			{
			break;
			}
	   }
		Hal__WriteValtoSegment(ptr_display_values);
 98a:	0e 94 e8 02 	call	0x5d0	; 0x5d0 <Hal__WriteValtoSegment>
 98e:	08 95       	ret

00000990 <Display__Handler>:
 *   Atualiza o display(leds) do estado do forno em fun??o da leitura das chaves
 */
void Display__Handler(void)
{
	#if (LED_DISPLAY == ENABLED)	
	   UpdateDisplayLeds();        // atualiza??o dos leds
 990:	0e 94 56 04 	call	0x8ac	; 0x8ac <UpdateDisplayLeds>
	#endif	                       // fun??o privada!
	#if (SEVEN_SEG_DISPLAY == ENABLED)
		UpdateDisplaySevenSeg();
 994:	0e 94 b2 04 	call	0x964	; 0x964 <UpdateDisplaySevenSeg>
 998:	08 95       	ret

0000099a <TempSensor__Initialize>:

void TempSensor__Initialize(void)
{
	TEMP_SENSOR_TYPE sensor_id;

	for (sensor_id = 0; sensor_id < NUM_OF_TEMP_SENSOR; sensor_id++) 
 99a:	80 e0       	ldi	r24, 0x00	; 0
 99c:	09 c0       	rjmp	.+18     	; 0x9b0 <TempSensor__Initialize+0x16>
	{
		Temperature[sensor_id] = 0;
 99e:	e8 2f       	mov	r30, r24
 9a0:	f0 e0       	ldi	r31, 0x00	; 0
 9a2:	ee 0f       	add	r30, r30
 9a4:	ff 1f       	adc	r31, r31
 9a6:	ed 53       	subi	r30, 0x3D	; 61
 9a8:	fe 4f       	sbci	r31, 0xFE	; 254
 9aa:	11 82       	std	Z+1, r1	; 0x01
 9ac:	10 82       	st	Z, r1

void TempSensor__Initialize(void)
{
	TEMP_SENSOR_TYPE sensor_id;

	for (sensor_id = 0; sensor_id < NUM_OF_TEMP_SENSOR; sensor_id++) 
 9ae:	8f 5f       	subi	r24, 0xFF	; 255
 9b0:	82 30       	cpi	r24, 0x02	; 2
 9b2:	a8 f3       	brcs	.-22     	; 0x99e <TempSensor__Initialize+0x4>
	{
		Temperature[sensor_id] = 0;

	}
}
 9b4:	08 95       	ret

000009b6 <TempSensor__ConversionHandler>:
//  Esta função faz a conversão dos valores lidos nos sensores escolhidos
//  e são armazenados em Temperature[].
 
//---------------------------------------------------------------------------------------------------------------------
void TempSensor__ConversionHandler(void)
{
 9b6:	0f 93       	push	r16
 9b8:	1f 93       	push	r17
 9ba:	cf 93       	push	r28
	unsigned short int ad_value;  // usar essa variável para fazer os cálculos!
	TEMP_SENSOR_TYPE sensor_id;   // identificador do sensor
	
	for (sensor_id = 0; sensor_id < NUM_OF_TEMP_SENSOR; sensor_id++) 
 9bc:	c0 e0       	ldi	r28, 0x00	; 0
 9be:	2c c0       	rjmp	.+88     	; 0xa18 <TempSensor__ConversionHandler+0x62>
	{
		if(TempSensor_Enable_Table[sensor_id] == ENABLED)
 9c0:	0c 2f       	mov	r16, r28
 9c2:	10 e0       	ldi	r17, 0x00	; 0
 9c4:	f8 01       	movw	r30, r16
 9c6:	e6 59       	subi	r30, 0x96	; 150
 9c8:	fe 4f       	sbci	r31, 0xFE	; 254
 9ca:	80 81       	ld	r24, Z
 9cc:	81 30       	cpi	r24, 0x01	; 1
 9ce:	19 f5       	brne	.+70     	; 0xa16 <TempSensor__ConversionHandler+0x60>
		{
			ad_value = Hal_GetAnalogInput(TempSensorTable[sensor_id]);
 9d0:	f8 01       	movw	r30, r16
 9d2:	e4 59       	subi	r30, 0x94	; 148
 9d4:	fe 4f       	sbci	r31, 0xFE	; 254
 9d6:	80 81       	ld	r24, Z
 9d8:	90 e0       	ldi	r25, 0x00	; 0
 9da:	0e 94 eb 02 	call	0x5d6	; 0x5d6 <Hal_GetAnalogInput>
			Temperature[sensor_id] = (float) (ad_value+400)/4 +50.0f;
 9de:	80 57       	subi	r24, 0x70	; 112
 9e0:	9e 4f       	sbci	r25, 0xFE	; 254
 9e2:	bc 01       	movw	r22, r24
 9e4:	80 e0       	ldi	r24, 0x00	; 0
 9e6:	90 e0       	ldi	r25, 0x00	; 0
 9e8:	0e 94 bc 05 	call	0xb78	; 0xb78 <__floatunsisf>
 9ec:	20 e0       	ldi	r18, 0x00	; 0
 9ee:	30 e0       	ldi	r19, 0x00	; 0
 9f0:	40 e8       	ldi	r20, 0x80	; 128
 9f2:	5e e3       	ldi	r21, 0x3E	; 62
 9f4:	0e 94 4a 06 	call	0xc94	; 0xc94 <__mulsf3>
 9f8:	20 e0       	ldi	r18, 0x00	; 0
 9fa:	30 e0       	ldi	r19, 0x00	; 0
 9fc:	48 e4       	ldi	r20, 0x48	; 72
 9fe:	52 e4       	ldi	r21, 0x42	; 66
 a00:	0e 94 21 05 	call	0xa42	; 0xa42 <__addsf3>
 a04:	00 0f       	add	r16, r16
 a06:	11 1f       	adc	r17, r17
 a08:	0d 53       	subi	r16, 0x3D	; 61
 a0a:	1e 4f       	sbci	r17, 0xFE	; 254
 a0c:	0e 94 8d 05 	call	0xb1a	; 0xb1a <__fixunssfsi>
 a10:	f8 01       	movw	r30, r16
 a12:	71 83       	std	Z+1, r23	; 0x01
 a14:	60 83       	st	Z, r22
void TempSensor__ConversionHandler(void)
{
	unsigned short int ad_value;  // usar essa variável para fazer os cálculos!
	TEMP_SENSOR_TYPE sensor_id;   // identificador do sensor
	
	for (sensor_id = 0; sensor_id < NUM_OF_TEMP_SENSOR; sensor_id++) 
 a16:	cf 5f       	subi	r28, 0xFF	; 255
 a18:	c2 30       	cpi	r28, 0x02	; 2
 a1a:	90 f2       	brcs	.-92     	; 0x9c0 <TempSensor__ConversionHandler+0xa>
			Temperature[sensor_id] = (float) (ad_value+400)/4 +50.0f;
		}
		
	}
	
}
 a1c:	cf 91       	pop	r28
 a1e:	1f 91       	pop	r17
 a20:	0f 91       	pop	r16
 a22:	08 95       	ret

00000a24 <TempSensor__GetCelsius>:
//---------------------------------------------------------------------------------------------------------------------
unsigned short int TempSensor__GetCelsius(TEMP_SENSOR_TYPE sensor_id)
{
	if (sensor_id < NUM_OF_TEMP_SENSOR)
 a24:	82 30       	cpi	r24, 0x02	; 2
 a26:	48 f4       	brcc	.+18     	; 0xa3a <TempSensor__GetCelsius+0x16>
	{
		return Temperature[sensor_id];
 a28:	e8 2f       	mov	r30, r24
 a2a:	f0 e0       	ldi	r31, 0x00	; 0
 a2c:	ee 0f       	add	r30, r30
 a2e:	ff 1f       	adc	r31, r31
 a30:	ed 53       	subi	r30, 0x3D	; 61
 a32:	fe 4f       	sbci	r31, 0xFE	; 254
 a34:	80 81       	ld	r24, Z
 a36:	91 81       	ldd	r25, Z+1	; 0x01
 a38:	08 95       	ret
	}
	else
	{
		return 0;
 a3a:	80 e0       	ldi	r24, 0x00	; 0
 a3c:	90 e0       	ldi	r25, 0x00	; 0
	}
	
}
 a3e:	08 95       	ret

00000a40 <__subsf3>:
 a40:	50 58       	subi	r21, 0x80	; 128

00000a42 <__addsf3>:
 a42:	bb 27       	eor	r27, r27
 a44:	aa 27       	eor	r26, r26
 a46:	0e 94 38 05 	call	0xa70	; 0xa70 <__addsf3x>
 a4a:	0c 94 10 06 	jmp	0xc20	; 0xc20 <__fp_round>
 a4e:	0e 94 02 06 	call	0xc04	; 0xc04 <__fp_pscA>
 a52:	38 f0       	brcs	.+14     	; 0xa62 <__addsf3+0x20>
 a54:	0e 94 09 06 	call	0xc12	; 0xc12 <__fp_pscB>
 a58:	20 f0       	brcs	.+8      	; 0xa62 <__addsf3+0x20>
 a5a:	39 f4       	brne	.+14     	; 0xa6a <__addsf3+0x28>
 a5c:	9f 3f       	cpi	r25, 0xFF	; 255
 a5e:	19 f4       	brne	.+6      	; 0xa66 <__addsf3+0x24>
 a60:	26 f4       	brtc	.+8      	; 0xa6a <__addsf3+0x28>
 a62:	0c 94 ff 05 	jmp	0xbfe	; 0xbfe <__fp_nan>
 a66:	0e f4       	brtc	.+2      	; 0xa6a <__addsf3+0x28>
 a68:	e0 95       	com	r30
 a6a:	e7 fb       	bst	r30, 7
 a6c:	0c 94 f9 05 	jmp	0xbf2	; 0xbf2 <__fp_inf>

00000a70 <__addsf3x>:
 a70:	e9 2f       	mov	r30, r25
 a72:	0e 94 21 06 	call	0xc42	; 0xc42 <__fp_split3>
 a76:	58 f3       	brcs	.-42     	; 0xa4e <__addsf3+0xc>
 a78:	ba 17       	cp	r27, r26
 a7a:	62 07       	cpc	r22, r18
 a7c:	73 07       	cpc	r23, r19
 a7e:	84 07       	cpc	r24, r20
 a80:	95 07       	cpc	r25, r21
 a82:	20 f0       	brcs	.+8      	; 0xa8c <__addsf3x+0x1c>
 a84:	79 f4       	brne	.+30     	; 0xaa4 <__addsf3x+0x34>
 a86:	a6 f5       	brtc	.+104    	; 0xaf0 <__addsf3x+0x80>
 a88:	0c 94 43 06 	jmp	0xc86	; 0xc86 <__fp_zero>
 a8c:	0e f4       	brtc	.+2      	; 0xa90 <__addsf3x+0x20>
 a8e:	e0 95       	com	r30
 a90:	0b 2e       	mov	r0, r27
 a92:	ba 2f       	mov	r27, r26
 a94:	a0 2d       	mov	r26, r0
 a96:	0b 01       	movw	r0, r22
 a98:	b9 01       	movw	r22, r18
 a9a:	90 01       	movw	r18, r0
 a9c:	0c 01       	movw	r0, r24
 a9e:	ca 01       	movw	r24, r20
 aa0:	a0 01       	movw	r20, r0
 aa2:	11 24       	eor	r1, r1
 aa4:	ff 27       	eor	r31, r31
 aa6:	59 1b       	sub	r21, r25
 aa8:	99 f0       	breq	.+38     	; 0xad0 <__addsf3x+0x60>
 aaa:	59 3f       	cpi	r21, 0xF9	; 249
 aac:	50 f4       	brcc	.+20     	; 0xac2 <__addsf3x+0x52>
 aae:	50 3e       	cpi	r21, 0xE0	; 224
 ab0:	68 f1       	brcs	.+90     	; 0xb0c <__addsf3x+0x9c>
 ab2:	1a 16       	cp	r1, r26
 ab4:	f0 40       	sbci	r31, 0x00	; 0
 ab6:	a2 2f       	mov	r26, r18
 ab8:	23 2f       	mov	r18, r19
 aba:	34 2f       	mov	r19, r20
 abc:	44 27       	eor	r20, r20
 abe:	58 5f       	subi	r21, 0xF8	; 248
 ac0:	f3 cf       	rjmp	.-26     	; 0xaa8 <__addsf3x+0x38>
 ac2:	46 95       	lsr	r20
 ac4:	37 95       	ror	r19
 ac6:	27 95       	ror	r18
 ac8:	a7 95       	ror	r26
 aca:	f0 40       	sbci	r31, 0x00	; 0
 acc:	53 95       	inc	r21
 ace:	c9 f7       	brne	.-14     	; 0xac2 <__addsf3x+0x52>
 ad0:	7e f4       	brtc	.+30     	; 0xaf0 <__addsf3x+0x80>
 ad2:	1f 16       	cp	r1, r31
 ad4:	ba 0b       	sbc	r27, r26
 ad6:	62 0b       	sbc	r22, r18
 ad8:	73 0b       	sbc	r23, r19
 ada:	84 0b       	sbc	r24, r20
 adc:	ba f0       	brmi	.+46     	; 0xb0c <__addsf3x+0x9c>
 ade:	91 50       	subi	r25, 0x01	; 1
 ae0:	a1 f0       	breq	.+40     	; 0xb0a <__addsf3x+0x9a>
 ae2:	ff 0f       	add	r31, r31
 ae4:	bb 1f       	adc	r27, r27
 ae6:	66 1f       	adc	r22, r22
 ae8:	77 1f       	adc	r23, r23
 aea:	88 1f       	adc	r24, r24
 aec:	c2 f7       	brpl	.-16     	; 0xade <__addsf3x+0x6e>
 aee:	0e c0       	rjmp	.+28     	; 0xb0c <__addsf3x+0x9c>
 af0:	ba 0f       	add	r27, r26
 af2:	62 1f       	adc	r22, r18
 af4:	73 1f       	adc	r23, r19
 af6:	84 1f       	adc	r24, r20
 af8:	48 f4       	brcc	.+18     	; 0xb0c <__addsf3x+0x9c>
 afa:	87 95       	ror	r24
 afc:	77 95       	ror	r23
 afe:	67 95       	ror	r22
 b00:	b7 95       	ror	r27
 b02:	f7 95       	ror	r31
 b04:	9e 3f       	cpi	r25, 0xFE	; 254
 b06:	08 f0       	brcs	.+2      	; 0xb0a <__addsf3x+0x9a>
 b08:	b0 cf       	rjmp	.-160    	; 0xa6a <__addsf3+0x28>
 b0a:	93 95       	inc	r25
 b0c:	88 0f       	add	r24, r24
 b0e:	08 f0       	brcs	.+2      	; 0xb12 <__addsf3x+0xa2>
 b10:	99 27       	eor	r25, r25
 b12:	ee 0f       	add	r30, r30
 b14:	97 95       	ror	r25
 b16:	87 95       	ror	r24
 b18:	08 95       	ret

00000b1a <__fixunssfsi>:
 b1a:	0e 94 29 06 	call	0xc52	; 0xc52 <__fp_splitA>
 b1e:	88 f0       	brcs	.+34     	; 0xb42 <__fixunssfsi+0x28>
 b20:	9f 57       	subi	r25, 0x7F	; 127
 b22:	98 f0       	brcs	.+38     	; 0xb4a <__fixunssfsi+0x30>
 b24:	b9 2f       	mov	r27, r25
 b26:	99 27       	eor	r25, r25
 b28:	b7 51       	subi	r27, 0x17	; 23
 b2a:	b0 f0       	brcs	.+44     	; 0xb58 <__fixunssfsi+0x3e>
 b2c:	e1 f0       	breq	.+56     	; 0xb66 <__fixunssfsi+0x4c>
 b2e:	66 0f       	add	r22, r22
 b30:	77 1f       	adc	r23, r23
 b32:	88 1f       	adc	r24, r24
 b34:	99 1f       	adc	r25, r25
 b36:	1a f0       	brmi	.+6      	; 0xb3e <__fixunssfsi+0x24>
 b38:	ba 95       	dec	r27
 b3a:	c9 f7       	brne	.-14     	; 0xb2e <__fixunssfsi+0x14>
 b3c:	14 c0       	rjmp	.+40     	; 0xb66 <__fixunssfsi+0x4c>
 b3e:	b1 30       	cpi	r27, 0x01	; 1
 b40:	91 f0       	breq	.+36     	; 0xb66 <__fixunssfsi+0x4c>
 b42:	0e 94 43 06 	call	0xc86	; 0xc86 <__fp_zero>
 b46:	b1 e0       	ldi	r27, 0x01	; 1
 b48:	08 95       	ret
 b4a:	0c 94 43 06 	jmp	0xc86	; 0xc86 <__fp_zero>
 b4e:	67 2f       	mov	r22, r23
 b50:	78 2f       	mov	r23, r24
 b52:	88 27       	eor	r24, r24
 b54:	b8 5f       	subi	r27, 0xF8	; 248
 b56:	39 f0       	breq	.+14     	; 0xb66 <__fixunssfsi+0x4c>
 b58:	b9 3f       	cpi	r27, 0xF9	; 249
 b5a:	cc f3       	brlt	.-14     	; 0xb4e <__fixunssfsi+0x34>
 b5c:	86 95       	lsr	r24
 b5e:	77 95       	ror	r23
 b60:	67 95       	ror	r22
 b62:	b3 95       	inc	r27
 b64:	d9 f7       	brne	.-10     	; 0xb5c <__fixunssfsi+0x42>
 b66:	3e f4       	brtc	.+14     	; 0xb76 <__fixunssfsi+0x5c>
 b68:	90 95       	com	r25
 b6a:	80 95       	com	r24
 b6c:	70 95       	com	r23
 b6e:	61 95       	neg	r22
 b70:	7f 4f       	sbci	r23, 0xFF	; 255
 b72:	8f 4f       	sbci	r24, 0xFF	; 255
 b74:	9f 4f       	sbci	r25, 0xFF	; 255
 b76:	08 95       	ret

00000b78 <__floatunsisf>:
 b78:	e8 94       	clt
 b7a:	09 c0       	rjmp	.+18     	; 0xb8e <__floatsisf+0x12>

00000b7c <__floatsisf>:
 b7c:	97 fb       	bst	r25, 7
 b7e:	3e f4       	brtc	.+14     	; 0xb8e <__floatsisf+0x12>
 b80:	90 95       	com	r25
 b82:	80 95       	com	r24
 b84:	70 95       	com	r23
 b86:	61 95       	neg	r22
 b88:	7f 4f       	sbci	r23, 0xFF	; 255
 b8a:	8f 4f       	sbci	r24, 0xFF	; 255
 b8c:	9f 4f       	sbci	r25, 0xFF	; 255
 b8e:	99 23       	and	r25, r25
 b90:	a9 f0       	breq	.+42     	; 0xbbc <__floatsisf+0x40>
 b92:	f9 2f       	mov	r31, r25
 b94:	96 e9       	ldi	r25, 0x96	; 150
 b96:	bb 27       	eor	r27, r27
 b98:	93 95       	inc	r25
 b9a:	f6 95       	lsr	r31
 b9c:	87 95       	ror	r24
 b9e:	77 95       	ror	r23
 ba0:	67 95       	ror	r22
 ba2:	b7 95       	ror	r27
 ba4:	f1 11       	cpse	r31, r1
 ba6:	f8 cf       	rjmp	.-16     	; 0xb98 <__floatsisf+0x1c>
 ba8:	fa f4       	brpl	.+62     	; 0xbe8 <__floatsisf+0x6c>
 baa:	bb 0f       	add	r27, r27
 bac:	11 f4       	brne	.+4      	; 0xbb2 <__floatsisf+0x36>
 bae:	60 ff       	sbrs	r22, 0
 bb0:	1b c0       	rjmp	.+54     	; 0xbe8 <__floatsisf+0x6c>
 bb2:	6f 5f       	subi	r22, 0xFF	; 255
 bb4:	7f 4f       	sbci	r23, 0xFF	; 255
 bb6:	8f 4f       	sbci	r24, 0xFF	; 255
 bb8:	9f 4f       	sbci	r25, 0xFF	; 255
 bba:	16 c0       	rjmp	.+44     	; 0xbe8 <__floatsisf+0x6c>
 bbc:	88 23       	and	r24, r24
 bbe:	11 f0       	breq	.+4      	; 0xbc4 <__floatsisf+0x48>
 bc0:	96 e9       	ldi	r25, 0x96	; 150
 bc2:	11 c0       	rjmp	.+34     	; 0xbe6 <__floatsisf+0x6a>
 bc4:	77 23       	and	r23, r23
 bc6:	21 f0       	breq	.+8      	; 0xbd0 <__floatsisf+0x54>
 bc8:	9e e8       	ldi	r25, 0x8E	; 142
 bca:	87 2f       	mov	r24, r23
 bcc:	76 2f       	mov	r23, r22
 bce:	05 c0       	rjmp	.+10     	; 0xbda <__floatsisf+0x5e>
 bd0:	66 23       	and	r22, r22
 bd2:	71 f0       	breq	.+28     	; 0xbf0 <__floatsisf+0x74>
 bd4:	96 e8       	ldi	r25, 0x86	; 134
 bd6:	86 2f       	mov	r24, r22
 bd8:	70 e0       	ldi	r23, 0x00	; 0
 bda:	60 e0       	ldi	r22, 0x00	; 0
 bdc:	2a f0       	brmi	.+10     	; 0xbe8 <__floatsisf+0x6c>
 bde:	9a 95       	dec	r25
 be0:	66 0f       	add	r22, r22
 be2:	77 1f       	adc	r23, r23
 be4:	88 1f       	adc	r24, r24
 be6:	da f7       	brpl	.-10     	; 0xbde <__floatsisf+0x62>
 be8:	88 0f       	add	r24, r24
 bea:	96 95       	lsr	r25
 bec:	87 95       	ror	r24
 bee:	97 f9       	bld	r25, 7
 bf0:	08 95       	ret

00000bf2 <__fp_inf>:
 bf2:	97 f9       	bld	r25, 7
 bf4:	9f 67       	ori	r25, 0x7F	; 127
 bf6:	80 e8       	ldi	r24, 0x80	; 128
 bf8:	70 e0       	ldi	r23, 0x00	; 0
 bfa:	60 e0       	ldi	r22, 0x00	; 0
 bfc:	08 95       	ret

00000bfe <__fp_nan>:
 bfe:	9f ef       	ldi	r25, 0xFF	; 255
 c00:	80 ec       	ldi	r24, 0xC0	; 192
 c02:	08 95       	ret

00000c04 <__fp_pscA>:
 c04:	00 24       	eor	r0, r0
 c06:	0a 94       	dec	r0
 c08:	16 16       	cp	r1, r22
 c0a:	17 06       	cpc	r1, r23
 c0c:	18 06       	cpc	r1, r24
 c0e:	09 06       	cpc	r0, r25
 c10:	08 95       	ret

00000c12 <__fp_pscB>:
 c12:	00 24       	eor	r0, r0
 c14:	0a 94       	dec	r0
 c16:	12 16       	cp	r1, r18
 c18:	13 06       	cpc	r1, r19
 c1a:	14 06       	cpc	r1, r20
 c1c:	05 06       	cpc	r0, r21
 c1e:	08 95       	ret

00000c20 <__fp_round>:
 c20:	09 2e       	mov	r0, r25
 c22:	03 94       	inc	r0
 c24:	00 0c       	add	r0, r0
 c26:	11 f4       	brne	.+4      	; 0xc2c <__fp_round+0xc>
 c28:	88 23       	and	r24, r24
 c2a:	52 f0       	brmi	.+20     	; 0xc40 <__fp_round+0x20>
 c2c:	bb 0f       	add	r27, r27
 c2e:	40 f4       	brcc	.+16     	; 0xc40 <__fp_round+0x20>
 c30:	bf 2b       	or	r27, r31
 c32:	11 f4       	brne	.+4      	; 0xc38 <__fp_round+0x18>
 c34:	60 ff       	sbrs	r22, 0
 c36:	04 c0       	rjmp	.+8      	; 0xc40 <__fp_round+0x20>
 c38:	6f 5f       	subi	r22, 0xFF	; 255
 c3a:	7f 4f       	sbci	r23, 0xFF	; 255
 c3c:	8f 4f       	sbci	r24, 0xFF	; 255
 c3e:	9f 4f       	sbci	r25, 0xFF	; 255
 c40:	08 95       	ret

00000c42 <__fp_split3>:
 c42:	57 fd       	sbrc	r21, 7
 c44:	90 58       	subi	r25, 0x80	; 128
 c46:	44 0f       	add	r20, r20
 c48:	55 1f       	adc	r21, r21
 c4a:	59 f0       	breq	.+22     	; 0xc62 <__fp_splitA+0x10>
 c4c:	5f 3f       	cpi	r21, 0xFF	; 255
 c4e:	71 f0       	breq	.+28     	; 0xc6c <__fp_splitA+0x1a>
 c50:	47 95       	ror	r20

00000c52 <__fp_splitA>:
 c52:	88 0f       	add	r24, r24
 c54:	97 fb       	bst	r25, 7
 c56:	99 1f       	adc	r25, r25
 c58:	61 f0       	breq	.+24     	; 0xc72 <__fp_splitA+0x20>
 c5a:	9f 3f       	cpi	r25, 0xFF	; 255
 c5c:	79 f0       	breq	.+30     	; 0xc7c <__fp_splitA+0x2a>
 c5e:	87 95       	ror	r24
 c60:	08 95       	ret
 c62:	12 16       	cp	r1, r18
 c64:	13 06       	cpc	r1, r19
 c66:	14 06       	cpc	r1, r20
 c68:	55 1f       	adc	r21, r21
 c6a:	f2 cf       	rjmp	.-28     	; 0xc50 <__fp_split3+0xe>
 c6c:	46 95       	lsr	r20
 c6e:	f1 df       	rcall	.-30     	; 0xc52 <__fp_splitA>
 c70:	08 c0       	rjmp	.+16     	; 0xc82 <__fp_splitA+0x30>
 c72:	16 16       	cp	r1, r22
 c74:	17 06       	cpc	r1, r23
 c76:	18 06       	cpc	r1, r24
 c78:	99 1f       	adc	r25, r25
 c7a:	f1 cf       	rjmp	.-30     	; 0xc5e <__fp_splitA+0xc>
 c7c:	86 95       	lsr	r24
 c7e:	71 05       	cpc	r23, r1
 c80:	61 05       	cpc	r22, r1
 c82:	08 94       	sec
 c84:	08 95       	ret

00000c86 <__fp_zero>:
 c86:	e8 94       	clt

00000c88 <__fp_szero>:
 c88:	bb 27       	eor	r27, r27
 c8a:	66 27       	eor	r22, r22
 c8c:	77 27       	eor	r23, r23
 c8e:	cb 01       	movw	r24, r22
 c90:	97 f9       	bld	r25, 7
 c92:	08 95       	ret

00000c94 <__mulsf3>:
 c94:	0e 94 5d 06 	call	0xcba	; 0xcba <__mulsf3x>
 c98:	0c 94 10 06 	jmp	0xc20	; 0xc20 <__fp_round>
 c9c:	0e 94 02 06 	call	0xc04	; 0xc04 <__fp_pscA>
 ca0:	38 f0       	brcs	.+14     	; 0xcb0 <__mulsf3+0x1c>
 ca2:	0e 94 09 06 	call	0xc12	; 0xc12 <__fp_pscB>
 ca6:	20 f0       	brcs	.+8      	; 0xcb0 <__mulsf3+0x1c>
 ca8:	95 23       	and	r25, r21
 caa:	11 f0       	breq	.+4      	; 0xcb0 <__mulsf3+0x1c>
 cac:	0c 94 f9 05 	jmp	0xbf2	; 0xbf2 <__fp_inf>
 cb0:	0c 94 ff 05 	jmp	0xbfe	; 0xbfe <__fp_nan>
 cb4:	11 24       	eor	r1, r1
 cb6:	0c 94 44 06 	jmp	0xc88	; 0xc88 <__fp_szero>

00000cba <__mulsf3x>:
 cba:	0e 94 21 06 	call	0xc42	; 0xc42 <__fp_split3>
 cbe:	70 f3       	brcs	.-36     	; 0xc9c <__mulsf3+0x8>

00000cc0 <__mulsf3_pse>:
 cc0:	95 9f       	mul	r25, r21
 cc2:	c1 f3       	breq	.-16     	; 0xcb4 <__mulsf3+0x20>
 cc4:	95 0f       	add	r25, r21
 cc6:	50 e0       	ldi	r21, 0x00	; 0
 cc8:	55 1f       	adc	r21, r21
 cca:	62 9f       	mul	r22, r18
 ccc:	f0 01       	movw	r30, r0
 cce:	72 9f       	mul	r23, r18
 cd0:	bb 27       	eor	r27, r27
 cd2:	f0 0d       	add	r31, r0
 cd4:	b1 1d       	adc	r27, r1
 cd6:	63 9f       	mul	r22, r19
 cd8:	aa 27       	eor	r26, r26
 cda:	f0 0d       	add	r31, r0
 cdc:	b1 1d       	adc	r27, r1
 cde:	aa 1f       	adc	r26, r26
 ce0:	64 9f       	mul	r22, r20
 ce2:	66 27       	eor	r22, r22
 ce4:	b0 0d       	add	r27, r0
 ce6:	a1 1d       	adc	r26, r1
 ce8:	66 1f       	adc	r22, r22
 cea:	82 9f       	mul	r24, r18
 cec:	22 27       	eor	r18, r18
 cee:	b0 0d       	add	r27, r0
 cf0:	a1 1d       	adc	r26, r1
 cf2:	62 1f       	adc	r22, r18
 cf4:	73 9f       	mul	r23, r19
 cf6:	b0 0d       	add	r27, r0
 cf8:	a1 1d       	adc	r26, r1
 cfa:	62 1f       	adc	r22, r18
 cfc:	83 9f       	mul	r24, r19
 cfe:	a0 0d       	add	r26, r0
 d00:	61 1d       	adc	r22, r1
 d02:	22 1f       	adc	r18, r18
 d04:	74 9f       	mul	r23, r20
 d06:	33 27       	eor	r19, r19
 d08:	a0 0d       	add	r26, r0
 d0a:	61 1d       	adc	r22, r1
 d0c:	23 1f       	adc	r18, r19
 d0e:	84 9f       	mul	r24, r20
 d10:	60 0d       	add	r22, r0
 d12:	21 1d       	adc	r18, r1
 d14:	82 2f       	mov	r24, r18
 d16:	76 2f       	mov	r23, r22
 d18:	6a 2f       	mov	r22, r26
 d1a:	11 24       	eor	r1, r1
 d1c:	9f 57       	subi	r25, 0x7F	; 127
 d1e:	50 40       	sbci	r21, 0x00	; 0
 d20:	9a f0       	brmi	.+38     	; 0xd48 <__mulsf3_pse+0x88>
 d22:	f1 f0       	breq	.+60     	; 0xd60 <__mulsf3_pse+0xa0>
 d24:	88 23       	and	r24, r24
 d26:	4a f0       	brmi	.+18     	; 0xd3a <__mulsf3_pse+0x7a>
 d28:	ee 0f       	add	r30, r30
 d2a:	ff 1f       	adc	r31, r31
 d2c:	bb 1f       	adc	r27, r27
 d2e:	66 1f       	adc	r22, r22
 d30:	77 1f       	adc	r23, r23
 d32:	88 1f       	adc	r24, r24
 d34:	91 50       	subi	r25, 0x01	; 1
 d36:	50 40       	sbci	r21, 0x00	; 0
 d38:	a9 f7       	brne	.-22     	; 0xd24 <__mulsf3_pse+0x64>
 d3a:	9e 3f       	cpi	r25, 0xFE	; 254
 d3c:	51 05       	cpc	r21, r1
 d3e:	80 f0       	brcs	.+32     	; 0xd60 <__mulsf3_pse+0xa0>
 d40:	0c 94 f9 05 	jmp	0xbf2	; 0xbf2 <__fp_inf>
 d44:	0c 94 44 06 	jmp	0xc88	; 0xc88 <__fp_szero>
 d48:	5f 3f       	cpi	r21, 0xFF	; 255
 d4a:	e4 f3       	brlt	.-8      	; 0xd44 <__mulsf3_pse+0x84>
 d4c:	98 3e       	cpi	r25, 0xE8	; 232
 d4e:	d4 f3       	brlt	.-12     	; 0xd44 <__mulsf3_pse+0x84>
 d50:	86 95       	lsr	r24
 d52:	77 95       	ror	r23
 d54:	67 95       	ror	r22
 d56:	b7 95       	ror	r27
 d58:	f7 95       	ror	r31
 d5a:	e7 95       	ror	r30
 d5c:	9f 5f       	subi	r25, 0xFF	; 255
 d5e:	c1 f7       	brne	.-16     	; 0xd50 <__mulsf3_pse+0x90>
 d60:	fe 2b       	or	r31, r30
 d62:	88 0f       	add	r24, r24
 d64:	91 1d       	adc	r25, r1
 d66:	96 95       	lsr	r25
 d68:	87 95       	ror	r24
 d6a:	97 f9       	bld	r25, 7
 d6c:	08 95       	ret

00000d6e <_exit>:
 d6e:	f8 94       	cli

00000d70 <__stop_program>:
 d70:	ff cf       	rjmp	.-2      	; 0xd70 <__stop_program>
